(ilrsgd
LogisticRegressionSGD
p0
(dp1
S'mu'
p2
F0.0
sS'eta'
p3
F0.01
sS'weight'
p4
(lp5
F0.0
aF-0.00978362017231912
aF-0.01
aF0.0
aF0.0
aF0.0
aF-0.06721869250184584
aF-0.007437422481329638
aF0.0345827054232927
aF-0.019999229851566117
aF4.493197960560358e-05
aF-0.04856038836582227
aF-0.010937712467547529
aF-0.01
aF-0.027781809911300668
aF7.505063237545073e-13
aF-0.029993446480483195
aF-0.019733221635459992
aF-0.009395030395243777
aF-0.0027594350498388633
aF0.0
aF-0.04595959887136313
aF0.0
aF-0.006586816396558939
aF-0.005192939077834584
aF-0.028793855791613625
aF-0.009999097981966562
aF-0.009984853285983985
aF-0.016209275860480668
aF-0.006786577772747128
aF-0.03972788166332438
aF1.9371907061804805e-07
aF-0.004954815273005867
aF-0.018106529817824273
aF-0.0834198733807753
aF-0.01141813582720608
aF-0.017493725155941244
aF-0.004324580649273196
aF0.0
aF0.005000000000000001
aF-0.009999999999494856
aF-0.009999999999295624
aF-0.027752592255314325
aF-0.03656901657064468
aF-0.009375933904729862
aF0.0012019434133381812
aF-0.009999993207913708
aF-0.009999999999600028
aF-0.009899544505509176
aF-0.009908229806872877
aF-0.009402492497571762
aF0.004239210335829913
aF-0.006596556059084983
aF-0.046143816395374335
aF-0.02026661901061608
aF-0.05161877720629252
aF-0.019012504767278858
aF-0.07904091779708207
aF-0.0564348252064425
aF1.4846724828432302e-07
aF-0.015154444962674677
aF0.10360647017906335
aF-0.04621512640970517
aF-0.10035289872768008
aF-0.011135852219085484
aF0.0
aF-0.009911145447837328
aF-0.009999976670161118
aF-0.008410886880209485
aF2.1156597951321745e-09
aF-0.03203074501593172
aF-0.05799822212904458
aF-0.00985656245676435
aF-0.019999999999653635
aF-0.014913316393382826
aF1.1537267496486426e-06
aF0.1052731253527758
aF-0.009996483366563473
aF0.006476434379984755
aF-0.0048528303644919946
aF0.0004981862829037987
aF0.0
aF0.0
aF-0.017257520300681905
aF0.0
aF0.0
aF-0.029178192451947194
aF-0.029698598910643623
aF-0.009997773113495501
aF-0.009999668335446249
aF-0.008054263251962807
aF0.021951459920557477
aF-0.007964107925654934
aF0.0
aF-0.07694746885714977
aF-0.06871044252182458
aF-0.007187398792608879
aF-0.017311325639656677
aF-0.007500928153676663
aF-0.00047570654012413097
aF-0.018113658454322563
aF-0.019860868010190928
aF-0.016545961303995237
aF-0.05231620631542855
aF0.0
aF-0.009951299638937306
aF-0.029948964116639734
aF-0.16767172777939426
aF-0.009999023388807952
aF-0.024585300486036545
aF-0.015023087147236824
aF-0.009983162250076933
aF-0.007690652019046727
aF-0.02678706144447557
aF0.035814187775205474
aF4.252108816330535e-06
aF-0.009478252296663898
aF-0.0995542692029438
aF-0.009949508473333687
aF-0.01996731064130454
aF-0.04213907799148722
aF-0.03646710300477857
aF-0.10268212214546388
aF-0.09319411851268149
aF-0.009999999999658435
aF-0.01772438860327418
aF-0.009868242545901925
aF-0.00999982848298768
aF-0.006936569342302754
aF0.0
aF0.0
aF1.2351614976329195e-05
aF-0.007187398792608879
aF-0.07391940734746466
aF0.0
aF-0.01999997498099022
aF-0.060799963039870085
aF-0.007548128140724094
aF-0.009999962135947406
aF-0.004310783260193758
aF-0.019929397532284593
aF-0.10819651602230863
aF-0.015072005760608968
aF-0.04693865469903959
aF0.0
aF-0.00920687312911786
aF-0.07906291666211074
aF-0.011113658602448817
aF-0.11861857068726298
aF0.0
aF-0.00630957242252947
aF-0.015502009662272276
aF-0.008531948712563667
aF-0.009999967397013566
aF0.0
aF-0.028311753398118353
aF-0.019975267046606404
aF-0.039920080425187555
aF0.00411376267672245
aF-0.049236762293344574
aF-0.01877598805980442
aF-0.0051342542403913245
aF-0.00999999985152334
aF-0.051891193478096745
aF-0.009733190278118095
aF-0.01999187454156991
aF-0.06267842450608302
aF-0.009999999999617459
aF-0.005439427185157187
aF-0.009999999706163536
aF-0.020663071094247386
aF-0.00967449680694463
aF-0.09410223006905466
aF-0.0262189859093548
aF-0.009784844296079733
aF-0.00999032850648389
aF-0.028661289176130603
aF0.0
aF-0.10468147605071729
aF-0.026879873342982287
aF0.0
aF-0.012846496356589042
aF-0.025104738486025735
aF0.0004981862829037987
aF-0.031245476275677746
aF0.08725940325355291
aF-0.035829252159674176
aF-0.007878514562728834
aF-0.00999954822330381
aF-0.09700209322413095
aF-0.00737435168156838
aF-0.02
aF-0.2602589731990001
aF-0.005082244548337385
aF-0.106583733064676
aF-0.005134254590088652
aF-0.03611924356856714
aF-0.018209395641551177
aF0.0
aF0.08024190807606557
aF-0.03999238884271186
aF-0.015850333987622516
aF-0.009364115334449637
aF0.025282777230388822
aF0.0
aF-0.00952795367941941
aF-0.007728722344333924
aF-0.019277777821877364
aF-0.009999999948795794
aF-0.009999776789846133
aF-0.007939174763050765
aF-0.0076912791467591834
aF-0.009119326607972636
aF-0.009999999999295624
aF-0.034671221387709505
aF-0.004821418998661314
aF0.0009790181148765643
aF0.0
aF-0.019995596587324298
aF-0.09676403081972719
aF-0.05092784163722869
aF-0.10455744048460519
aF-0.022724654480421273
aF-0.009384539236619614
aF0.04430756158136724
aF-0.01795595299215206
aF-0.00999965288327885
aF-0.028036654214660513
aF-0.10284707509901038
aF-0.02995116307530387
aF-0.008295632054556355
aF-0.0193544306458475
aF-0.009998765766001496
aF-0.008410886880209485
aF-0.0026789040242993813
aF1.1537267496486426e-06
aF-0.007728722344333924
aF-0.009651943691846574
aF-0.009105178603282147
aF-0.005650976928194252
aF0.02088277934944794
aF-0.029553168793200687
aF-0.007460293592018817
aF-0.029882948094925033
aF-0.003241779941364778
aF-0.02971381407460176
aF0.00205537818854702
aF-0.19202328933965057
aF-0.006677859540969683
aF-0.09774798540770516
aF-0.009990967111991534
aF-0.01555894325167664
aF-0.009900844429242925
aF0.014664259925483881
aF0.0
aF-0.019997646933335698
aF5.3108257050671346e-06
aF-0.08099153509114586
aF-0.0012693351663365542
aF-0.005049065265673763
aF-0.03617939979185312
aF-0.009999956972063517
aF-0.009999999999876939
aF0.0
aF-0.00361184174157383
aF-0.0714304898117204
aF-0.019999999998263608
aF-0.009997231222012064
aF-0.019986314338504133
aF-0.0075292015675311645
aF-0.006654977070195404
aF-0.0888495858982978
aF-0.0049672664905523215
aF0.0
aF-0.019353628521684114
aF-0.008090554152854333
aF-0.039107317795417
aF0.0010340370182480097
aF-0.009833372928590213
aF-0.009999965661162532
aF-0.006171404562706288
aF-0.00999976533437949
aF-0.009671348907425895
aF-0.11155672692136034
aF0.0
aF-0.05605874319827515
aF-0.007656923107737911
aF-0.014840381104103403
aF-0.01
aF-0.018962369995770334
aF-0.004978174603866536
aF-0.006768697616233209
aF0.001026972923235353
aF0.00030341161563257835
aF-0.024848781667329928
aF-0.009999999992828093
aF-0.041957409839250635
aF0.0
aF-0.009999811985970693
aF-0.008197277778663973
aF-0.04614132580899802
aF-0.009997855613171932
aF0.0
aF-0.009977681135423293
aF-0.012430782140130603
aF0.0010504658510067167
aF0.0
aF-0.04300705401100596
aF0.0
aF0.0
aF1.4846724828432302e-07
aF5.822185992435669e-06
aF-0.007704891254137138
aF-0.009999652095762354
aF-0.009387142092667264
aF-0.03324541588443566
aF0.03235002346608318
aF-0.015449346901864312
aF-0.04419305653024981
aF-0.01903431317798575
aF-0.008410886880209485
aF-0.00999999999997369
aF-0.03988640183730733
aF-0.01614460653781374
aF-0.00999982604156331
aF-0.08959522983288529
aF-0.016508530913068586
aF-0.02619667012233183
aF-0.01999988487426162
aF0.0
aF-0.07358289275530232
aF-0.01
aF-0.009101162888108662
aF-0.008051062061973884
aF-0.009984490220685415
aF-0.004073049139104404
aF-0.2694224252739189
aF-0.025977579878983706
aF-0.024713721211504475
aF-0.009999755840401846
aF-0.00999999710389745
aF-0.01921345063691888
aF-0.008862636194262509
aF-0.0075439552808289415
aF0.0013005022652453002
aF-0.019997295079083165
aF-0.02361183929435183
aF-0.012727115913791035
aF0.0029777044579672044
aF-0.06926551854107782
aF-0.04629747411053381
aF-0.1095315174809765
aF-0.11884928464123445
aF-0.009999947965426522
aF0.0
aF-0.021941057255340072
aF-0.007610571947141277
aF-0.18248279079847002
aF-0.02007717343435313
aF-0.0051801167654886284
aF-0.009651943691846574
aF-0.019425263774941012
aF-0.008921711358044735
aF-0.07992852763816972
aF-0.00999945621098935
aF-0.00952795367941941
aF-0.006715738013188846
aF-0.009999999971503042
aF-0.07338059899088525
aF0.0
aF3.0617565609047935e-05
aF-0.2130472827699362
aF-0.046310293331395164
aF-0.018810591315408933
aF-0.023815223799428936
aF-0.01
aF-0.02695268457784024
aF-0.009999900881480618
aF-0.019820572869164443
aF-0.009295808689886956
aF-0.012067391921490497
aF-0.005663178460301621
aF-0.015977753837420394
aF0.0
aF-0.03594518971819443
aF-0.016291480976191812
aF-0.018678300527206593
aF0.6671236325080832
aF-0.04430521505203263
aF-0.009820611890284282
aF-0.02910880857436992
aF-0.009999963786606177
aF-0.009997640930779433
aF0.0
aF-0.01647626553963048
aF-0.09593535579288691
aF0.015312550959956815
aF-0.0033032525011149785
aF-0.0442057308786733
aF-0.009979122259789194
aF-0.03936306657917807
aF-0.009984490220685415
aF-0.027652483750314018
aF-0.008051062061973884
aF2.6423307986078724e-16
aF-0.0626400199303885
aF-0.015292005366918002
aF-0.007233812557198
aF-0.052987928602305966
aF-0.009977467049028202
aF-0.00999954822330381
aF0.0
aF-0.04335899705861143
aF-0.01
aF-0.018033916440935542
aF-0.009994177814007564
aF-0.029991604222666123
aF-0.03790327230077545
aF-0.004336600303067318
aF-0.09892939069152426
aF-0.014049609070199472
aF-0.016118527060080483
aF-0.019852150753526934
aF-0.00952795367941941
aF0.00033851532856622236
aF1.7147561541841495e-06
aF-0.00997298278347793
aF0.0
aF-0.13847736409996347
aF-0.07778714402004765
aF-0.09395534746211442
aF-0.015475558399263985
aF-0.009998389074923467
aF-0.007656923107737911
aF-0.019709812320343287
aF0.0
aF-0.019999983259967602
aF-0.009931151816336583
aF-0.029554912182895642
aF-0.0964062024016002
aF-0.014859654617545398
aF-0.029321378300648075
aF-0.013791650494515214
aF-0.0083571263816453
aF-0.00793903202433118
aF-0.1469318643658659
aF-0.025721867507513332
aF-0.03746618241786322
aF-0.06298792860230595
aF0.0
aF-0.01428361989379675
aF-0.025900654276015678
aF-0.01936152114910342
aF-0.04607671405081568
aF-0.04866514294137764
aF-0.002357828886441071
aF-0.0026619211274368387
aF-0.00999999282306391
aF-0.06677621229308657
aF0.0
aF-0.01148783977634129
aF0.011456705643531795
aF-0.009540030073822535
aF0.0
aF-0.026687941950049313
aF-0.0099999999999828
aF-0.019063926160128045
aF-0.029560791409049984
aF-0.07846961382372572
aF-0.025486216478946763
aF-0.006768697616233209
aF-0.021270634146882343
aF-0.007582166308026867
aF-0.02792233765546753
aF-0.013243221321998256
aF-0.006229428484645553
aF-0.03774074671460238
aF-0.019479511007013464
aF-0.018758526979670932
aF-0.026783511514780364
aF-0.009608091348433205
aF-0.006768697616233209
aF-0.009066733331900325
aF6.693443459604431e-08
aF-0.039136318849026026
aF-0.016992216601146366
aF-0.009961088230985907
aF-0.09663306654694298
aF-0.014974931447777062
aF-0.0305487905094149
aF-0.012400971612317176
aF-0.018652675689137928
aF-0.019832424854962925
aF-0.009671348907425895
aF-0.019383439883150236
aF0.0
aF-0.008482881656658663
aF0.026602981076771677
aF0.0
aF-0.01905122355258574
aF-0.009833290887571036
aF-0.0948181314152002
aF-0.005380137294922347
aF0.00735045101593767
aF-0.056361240375338524
aF-0.035644929140576126
aF0.008397082348562093
aF-0.04420879752933988
aF0.0379543939131228
aF-0.029949206273339635
aF-0.009999892759740923
aF-0.009643164968208922
aF-0.05616948456177484
aF-0.009996012279533376
aF-0.01883904607189757
aF-0.0020822742828072623
aF-0.015115249900167063
aF-0.00952795367941941
aF-0.00999999282306391
aF-0.009999956972063517
aF-0.009999960744966025
aF-0.00895140498426669
aF-0.116413918080077
aF-0.12838820260030007
aF-0.0624194772892516
aF-0.05597506575997499
aF-0.05718555538573668
aF-0.07064101062615642
aF0.0
aF-0.004679988452867494
aF-0.027233225740250867
aF-0.016243691692608257
aF-0.00755070782261522
aF-0.009993066562362854
aF-0.02882041127890951
aF0.08553685441859335
aF-0.025579089709493893
aF-0.043887791118271784
aF-0.01269505991038365
aF-0.009939344041418918
aF-0.053108891345320756
aF-0.028784363015591757
aF-0.06685334273296072
aF-0.009990302058970838
aF-0.00999954822330381
aF-0.014310502703682813
aF0.0
aF-0.030535528688833663
aF-0.00999993803565911
aF-0.02410170007065633
aF-0.009105178603282147
aF-0.021888029384027424
aF-0.005534429121919244
aF0.0
aF-0.01
aF-0.014579786005830209
aF-0.054706325718179245
aF-0.03703203421965778
aF-0.009986850908225337
aF-0.00991819839120313
aF-0.06208080760642777
aF0.0
aF0.0
aF-0.09347202736137922
aF0.20307268304288179
aF-0.007620301794250299
aF-0.20275790080163367
aF-0.02461984299482683
aF-0.009999963349512982
aF-0.07246117666198754
aF-0.0282645053425954
aF-0.022254174926284002
aF-0.013954236547258778
aF-0.27467268831124886
aF-0.00952795367941941
aF-0.00999999282306391
aF-0.009973040944366404
aF-0.0199943398790111
aF-0.002336733740609088
aF-0.02999308680845937
aF-0.09894657484803722
aF-0.03396707157679283
aF0.0
aF-0.03099094677166863
aF-0.009998103164070928
aF-0.03764268209395788
aF-0.02223815350625985
aF-0.0077965908118181075
aF-0.053702071632753076
aF-0.008330659452235383
aF-0.0360016212178045
aF-0.011995397997786707
aF0.0
aF-0.0065365118955003085
aF-0.01
aF-0.04389443609552969
aF-0.009999997748524342
aF-0.047097558497932776
aF0.26104970713213693
aF-0.009999132092676033
aF-0.013845138338399277
aF0.0
aF-0.032603087364168934
aF-0.00999999497699153
aF0.0010153392244093618
aF-0.05233205760613483
aF-0.04901561647052836
aF-0.11008108273243532
aF0.03888446433227707
aF0.0
aF-0.019999446984876327
aF-0.029540566328845583
aF-0.009823925326450609
aF-0.09908478498911313
aF0.005757186056338826
aF-0.10624514860775794
aF-0.0053927412701163455
aF-0.01999716564936421
aF-0.018502579347941726
aF-0.022921556169690025
aF-0.005096796138354711
aF-0.009998424981092631
aF-0.029461377011584633
aF-0.009950315357031829
aF-0.04738559325174883
aF-0.009986941780052471
aF0.0
aF0.13863871737383093
aF-0.009325015393856459
aF-0.00990365510475423
aF-0.11597963904517979
aF-0.004560791611198692
aF0.0014704578411896042
aF-0.020197398878915314
aF-0.03251437843341627
aF-0.01509095914669024
aF-0.009379626621753616
aF0.0
aF-0.009990138944769064
aF0.00012718183908876356
aF-0.009990968727435061
aF-0.003741107294138494
aF0.0009167481037144909
aF-0.029982895587120945
aF-0.0033444474141719784
aF-0.007456710010156176
aF0.07857682316067965
aF-0.007486929031590627
aF-0.037467276663027696
aF-0.10584766343505217
aF-0.003037528517207255
aF-0.04786021857277763
aF-0.003296701011895044
aF-0.013014045987845408
aF-0.021712132054190585
aF-0.005185122949845389
aF-0.009980648811521999
aF0.005971628183202293
aF-0.14072040018522455
aF0.0
aF-0.0766144424622375
aF-0.11416657749568525
aF-0.08752836116884566
aF-0.03256053918885087
aF0.0
aF-0.018312923670173276
aF-0.0019993114241262907
aF-0.03577645434776844
aF-0.024999577321456613
aF-0.06584099106315075
aF-0.4210813131365627
aF0.0
aF1.71516914106995e-07
aF0.0
aF-0.03431269542579621
aF-0.02279110725674896
aF0.00027830749144587276
aF-0.01993723136191229
aF-0.05260333731522711
aF0.0
aF-0.01706719705351962
aF-0.006715738013188846
aF0.0001675849880964786
aF-0.04771915781441542
aF7.015047487013426e-08
aF-0.009974082595904212
aF0.0
aF-0.12793008178959556
aF-0.05880817975522327
aF-0.22392338849734436
aF-0.06567672031661752
aF-0.0034226342084596774
aF-0.009033876793413059
aF-0.009999486961724719
aF-0.021655970939019536
aF-0.03126835307833286
aF-0.18432002046167859
aF-0.9523620812341043
aF-0.01
aF-0.009923542594901115
aF-0.02992251568499104
aF0.0
aF-0.00998179972047189
aF-0.018589286624920886
aF0.0
aF9.303317880575702e-06
aF-0.00999945621098935
aF-0.02620177983805473
aF-0.006118341809496107
aF-0.1218285539245111
aF4.640732242933154e-16
aF-0.042643806236125535
aF-0.03993613050504488
aF-0.009997825914487396
aF-0.16602085501584168
aF-0.019233505344878145
aF-0.01998868418731925
aF-0.019919695931671165
aF-0.019934331349721522
aF-0.0012693351663365542
aF0.002842577945208432
aF-0.004726100846124228
aF-0.010610900670801395
aF-0.0029616994150924777
aF-0.0029931104604739925
aF-0.1424077343807815
aF-0.009572195285080383
aF0.012352144901813208
aF-0.011913010760427669
aF0.004294568019990859
aF-0.019239596589575296
aF-0.01
aF-0.003371169295643993
aF-0.00945692921560817
aF-0.019713369412316366
aF-0.01666020707028394
aF-0.13430110537375553
aF-0.009144816522912255
aF-0.01747871004086485
aF-0.029787183171436644
aF-0.042228735508863954
aF-0.013959418256561325
aF-0.07384840585433393
aF-0.019152285416541855
aF-0.060622513307246925
aF-0.008617317429693223
aF-0.11670347940730093
aF0.8555833540199916
aF0.0
aF-0.006506836893133054
aF-0.025625099374644855
aF-0.039994754680695785
aF-0.008726209305296896
aF-0.030273592318113097
aF-0.1256651099961883
aF-0.03857093604286161
aF-0.009998261487989926
aF0.0
aF-0.0076912791467591834
aF-0.026071257507016336
aF-0.13806938560189963
aF0.00637883613895984
aF-0.013684152230208229
aF2.1156597951321745e-09
aF-0.01547235266982562
aF-0.027676461011323896
aF-0.027296424988684762
aF-0.0099999911620601
aF-0.0006412914041043589
aF-0.0469055876819964
aF-0.02574556656750284
aF0.0036535707144268936
aF-0.008454043554025278
aF-0.28815979104293504
aF0.003802505326530148
aF-0.019892978402473966
aF-0.009999779916571524
aF-0.14289568609988654
aF-0.13070430393427038
aF-0.0304200405293616
aF-0.007866578929993262
aF-0.07085015118307512
aF-0.0033003823903856046
aF-0.008649862578447718
aF-0.05381925193888303
aF-0.03998905322952845
aF0.0
aF-0.05045482383181631
aF-0.03888983132308682
aF-0.006659383308549422
aF-0.11932218146345845
aF-0.6244998268315387
aF-0.009999999940778681
aF-0.09059230457931779
aF-0.24898421075387261
aF0.0344775899313403
aF-0.019999094876640706
aF-0.15311095515271161
aF1.2833257647670848e-08
aF0.0
aF-0.008007749064169
aF-0.023778279284187867
aF0.0
aF0.0020764197283329967
aF-0.004265340390383422
aF-0.009358967209650553
aF-0.013846878972428985
aF-0.02932283925382008
aF-0.005630892832516922
aF-0.05268922988828807
aF-0.00969204380336277
aF-0.008891519167871427
aF-0.1034706087429712
aF-0.008051062061973884
aF-0.052081794817580705
aF-0.017948987835516336
aF-0.14756580616481854
aF-0.023405488722146928
aF-0.18886846860075762
aF-0.2615966501892365
aF-0.01721066109255889
aF0.054619268425268125
aF-0.05412157893752783
aF-0.017492545294923816
aF8.982814825309049e-11
aF-0.012534049872203367
aF-0.028729363759052155
aF-0.0075779919646826056
aF-0.009810883756044301
aF-0.003953065616914114
aF-0.150067738886173
aF-0.01997332157626759
aF-0.009903333792181999
aF-0.007600721205281168
aF-0.02460358973339861
aF-0.05287701016576787
aF-0.009999749071999554
aF-0.07189827709905842
aF-0.00999945621098935
aF-0.0099999763667456
aF-0.019978656036418036
aF-0.009998216309258217
aF-0.009995489050722424
aF-0.03662307426833147
aF-0.01947888366810096
aF-0.017944075032839943
aF-0.018314923689535276
aF-0.038631666695679114
aF-0.14792335829668946
aF-0.006139474214718821
aF-0.050487788551584256
aF-0.009810883756044301
aF-0.02908780941318167
aF-0.13647827120017725
aF-0.003833520828230224
aF-0.14725791003109262
aF-0.029090712856203342
aF-0.11305464704524369
aF-0.019588585051926434
aF-0.014999450367078143
aF-0.01747832387801385
aF0.08553503425288564
aF-0.029161685332319106
aF-0.10478121695592954
aF-0.006229917587772279
aF-0.005757615412179166
aF0.5231899525622142
aF-0.11085230507853108
aF-0.01796331108458554
aF0.0
aF0.00104032115145958
aF-0.007893698739706977
aF-0.062479629741961806
aF-0.01
aF0.312440680652524
aF-0.01643416211610607
aF2.586819647376615e-15
aF-0.029606607978883884
aF0.0
aF-0.013433002574900038
aF-0.009995489050722424
aF-0.22116758364106928
aF-0.037447236806915814
aF0.0
aF-0.014184541465118997
aF0.0
aF1.332889354443978e-13
aF-0.19506025439055436
aF-0.035711348023794255
aF-0.03521396243809433
aF-0.012848700548485437
aF-0.004852830364491932
aF-0.2050778377006102
aF-0.4121926834684656
aF0.02867029565082159
aF-0.009999999994299355
aF-0.3388786033649818
aF-0.2140807652785513
aF-0.04240326935408462
aF-0.009413039986494409
aF-0.023097423183007216
aF-0.18532409690051574
aF0.0
aF-0.009965580329912535
aF-0.009999755840401846
aF0.0
aF-0.032951592143510865
aF-0.009661642378762878
aF-0.03728788857000182
aF-0.00510219391101052
aF-0.007522597453523495
aF-0.03282543632111104
aF-0.007528226093160298
aF-0.011154241518915647
aF-0.019827404935860195
aF-0.005015673910617715
aF-0.004936409080455453
aF-0.00998997964437527
aF-0.008751571773640106
aF-0.00994112072381786
aF-0.016466530436560392
aF-0.019653229362770308
aF-0.07546756506308454
aF-0.00999974907257554
aF-0.028824288154080682
aF-0.006097391155204017
aF-0.01066919058255681
aF-0.07306653078792046
aF-0.02734602822777312
aF0.0
aF0.0
aF-0.005115249812756083
aF0.005000000000021337
aF0.0006392470946256901
aF-0.016362440045970067
aF-0.009687168661798145
aF-0.028881642498374216
aF-0.1257102052360117
aF-0.009974082595904212
aF3.165117836045894e-08
aF0.0
aF0.004653786246561503
aF-0.04209617623683883
aF-0.005792509947337631
aF-0.05496615760788032
aF-0.08168638117660298
aF-0.02787709252249119
aF-0.013533222724995094
aF-0.018676270588420207
aF0.038017759893102944
aF0.020396816832993235
aF-0.04276659162667175
aF-0.059966755547323655
aF0.0001653794638552686
aF-0.00957538861664128
aF2.220446049250313e-18
aF-0.0059231882815793625
aF-0.01792309222102701
aF-0.009999415191623761
aF-0.00999996828960032
aF-0.011389422778387302
aF0.0
aF0.001549051522441059
aF7.505063237545073e-13
aF-0.005029493894710897
aF0.0
aF-0.016362440045970067
aF-0.005838632471924419
aF-0.008751571773640106
aF-0.017635647106394047
aF-0.18564043587510937
aF-0.009999258258115203
aF-0.0867938989077155
aF-0.016613395609387162
aF-0.04810025144021995
aF-0.031935357772228744
aF-0.019016531540327095
aF-0.009999997961541286
aF5.402518375273724e-06
aF-0.009923516147361281
aF-0.016169101644224228
aF-0.016901923482193576
aF-0.007320032290207068
aF0.0
aF-0.23959767274800747
aF-0.009999733135523771
aF-0.03710882039118679
aF-0.24953423434923194
aF-0.00519741331675568
aF-0.009761192252008312
aF-0.019220610130880195
aF-0.0099984147539056
aF-0.03701626404223724
aF-0.01981099312080726
aF0.02349753892815696
aF1.112377873824233e-07
aF-0.009999831969088236
aF-0.032263384601227255
aF0.08306838267033051
aF5.20692975336523e-08
aF-0.009994780040868543
aF-0.009999156948892432
aF-0.006291480976193113
aF0.0021794677122545
aF-0.0034551769540558945
aF-0.06659829327141276
aF-0.00567606175081267
aF1.71516914106995e-07
aF0.02097824477769526
aF-0.009999999996621788
aF-0.0643421166459891
aF0.0
aF-0.36586144979872615
aF-0.017934378459428777
aF-0.007612994395764294
aF-0.08714258570393746
aF-0.008625793965921837
aF-0.00986979492086958
aF-0.02981070821589264
aF-0.00870713766399036
aF0.2263662023458848
aF-0.00999839791855226
aF-0.009912637110062576
aF-0.0471416741231718
aF-0.006596556059084983
aF-0.004925280356722707
aF-0.05499070121903462
aF-0.06332072724446347
aF1.112377873824233e-07
aF-0.13014126815703128
aF-0.002709411305802792
aF-0.019362083618219124
aF0.07481014951310254
aF-0.052471469434667004
aF-0.008447134746289381
aF-0.0239596579161008
aF-0.004063142407996219
aF0.0
aF-0.00751905455461798
aF-0.024124854081180924
aF-0.009999976670161118
aF0.0
aF0.0
aF-0.007803059797519877
aF0.0
aF-0.022394145639707708
aF0.0
aF-0.06692760158501071
aF-0.018951266157452105
aF-0.00991540165409778
aF-0.0557158010103246
aF-0.020885124527121345
aF-0.04181488769569154
aF-0.005047238736413446
aF-0.009534571558836271
aF-0.009511886391478803
aF-0.00996461849908854
aF-0.01802912869418353
aF-0.015779625537269644
aF0.0
aF-0.06871975981310598
aF-0.009989989271608367
aF-0.009993155712315833
aF-0.03521160113664294
aF0.0008264556767998987
aF-0.009718168075556793
aF0.0
aF-0.008049259610000338
aF-0.0016802045217650169
aF-0.014330013002153261
aF-0.011997070037742395
aF-0.009517550308031721
aF-0.019246026424997342
aF-0.008388377002510662
aF0.0
aF-0.01995856009906006
aF0.00021158305065738903
aF-0.04843358087523579
aF-0.021553352355170103
aF-0.01637393431772249
aF-0.009986711519906722
aF0.0
aF-0.02541171480059854
aF-0.013057656899046324
aF-0.009567554244651534
aF-0.009833372928590213
aF-0.02421731335346143
aF0.007846001795588479
aF-0.012067391921490497
aF-0.31912825062135786
aF-0.02007717343435313
aF-0.019962035010079374
aF-0.009999999999997053
aF-0.028163745993923996
aF-0.01614460653781374
aF-0.007656923107737911
aF-0.015115249900167063
aF-0.018849005769777355
aF-1.4658491383012056
aF-0.4014860338645143
aF-0.010089250148235956
aF-0.10857202540956173
aF-0.008410886880209485
aF-0.00999839791855226
aF-0.012975001750375047
aF0.006476434379984755
aF-0.004978174603866536
aF0.0
aF-0.13014126815703128
aF-0.03521160113664294
aF-0.020685660012630537
aF-0.015347748404992027
aF-0.009490123047628614
aF-0.05601618291621994
aF-0.18971731783595785
aF-0.05149153725112517
aF0.0
aF-0.005052490904071359
aF-0.00785460879313898
aF-0.088340575408928
aF-0.2584237475002099
aF-0.06755762188674047
aF-0.005569046205623839
aF-0.03259841445038698
aF-0.01589278920685192
aF-0.007929275645191042
aF-0.08741505147948256
aF0.0
aF-0.029985815858204912
aF-0.025815099053276107
aF-0.026917168379835685
aF-0.07195926551675436
aF-0.04132629032819055
aF0.00021158305065738903
aF-0.007437422481329638
aF-0.12128551339854086
aF-0.1270162736031967
aF0.026809375079137554
aF0.0
aF-0.033118710021614886
aF-0.012600567512660478
aF-0.2148389063471393
aF-0.00996461849908854
aF-0.009986850908225337
aF0.0
aF-0.014313279565269564
aF-0.009895112634479012
aF0.0
aF0.0
aF-0.04348592025603546
aF-0.00999504830993186
aF-0.0013675867020021097
aF-0.00346675358353296
aF-0.10387730939812055
aF-0.055043753002535674
aF0.0
aF-0.04858249902997696
aF-0.019860868010190928
aF-0.11991158508050972
aF-0.01
aF-0.009999932879015986
aF-0.009998216309258217
aF0.0
aF0.015775383494850036
aF-0.05799822212904458
aF-0.01921345063691888
aF-0.10268212214546388
aF-0.16767172777939426
aF-0.09319411851268149
aF-0.07904091779708207
aF-0.029553168793200687
aF-0.029948964116639734
aF-0.1065024024481558
aF-0.0551986820255365
aF-0.060799963039870085
aF-0.01075193599805675
aF0.0
aF-0.009651943691846574
aF-0.009540030073822535
aF0.0
aF-0.00997831836396009
aF-0.008051062061973884
aF-0.01883904607189757
aF-0.00956091696867776
aF0.0
aF-0.0935136632327888
aF-0.008051062061973884
aF-0.009997773113495501
aF-0.0282645053425954
aF-0.006936569342302754
aF-0.029886636771652354
aF-0.005834659390214019
aF-0.05231620631542855
aF-0.009679382053758172
aF-0.009726496717744277
aF-0.026564775458803883
aF-0.029554912182895642
aF-0.009999996944172406
aF-0.007571006138952875
aF-0.052656136883344036
aF3.125477654464248e-13
aF0.0
aF1.7147561541841495e-06
aF-0.009990968727435061
aF-0.0935136632327888
aF0.00015293238648262487
aF-0.005110791603601258
aF-0.03190125041054979
aF-0.0600872682627598
aF-0.029553168793200687
aF-0.014396935936715599
aF-0.009999999999600028
aF-0.007656923107737911
aF-0.21815835171093534
aF-0.019902064176681198
aF-0.027684705705105367
aF-0.009999992646608911
aF-0.00999945621098935
aF0.0017781669285175483
aF0.0
aF0.0030023449273125615
aF-0.009999999895686519
aF-0.05341790381984252
aF-0.006608735483739355
aF-0.00989889039436267
aF-0.006733267152895089
aF0.0005321764162715304
aF-0.0067300798510683425
aF-0.01764803805793186
aF-0.22953433417762545
aF-0.24898421075387261
aF-0.04541302424085322
aF-0.005874600278862791
aF-0.006565305462714085
aF-0.0360016212178045
aF-0.30384768102762116
aF0.0
aF0.0
aF-0.046465019889710066
aF-0.0099999911620601
aF-0.019999156894424622
aF-0.02325091174326157
aF-0.009821288469435075
aF-0.009833290887571036
aF-0.017903937599274077
aF-0.02250093797297319
aF-0.002281585387060084
aF-0.002283795906115462
aF-0.01592467103814793
aF-0.008211653275327038
aF-0.029975854230367242
aF-0.04789107567014448
aF-0.1128186464188744
aF0.0
aF0.004326900017445469
aF0.0
aF-0.028695313995847294
aF0.0
aF-0.008927083759384816
aF-0.009999996713020681
aF-0.0075779919646826056
aF-0.038300365601065214
aF0.0
aF-0.014049609070199472
aF-0.0073397580311224606
aF-0.029999967600396638
aF-0.12793008178959556
aF-0.007050186882326091
aF0.0
aF-0.021712132054190585
aF-0.019944251584005403
aF-0.10764205525011779
aF-0.11887704076683439
aF-0.10764205525011779
aF-0.1331799996116997
aF0.0020708928363105806
aF0.0005064867502419956
aF-0.00999999710389745
aF-0.009999668335446249
aF-0.0834506029926549
aF-0.009999997961541286
aF-0.009892879063359642
aF-0.00999999929905977
aF-0.009997640930779433
aF-0.03642908198409084
aF-0.05341790381984252
aF-0.0714304898117204
aF0.0
aF-0.14756580616481854
aF-0.015761127488876415
aF-0.017885484524874075
aF-0.18971731783595785
aF0.0
aF-0.019997646933335698
aF0.00012718183908876356
aF0.0
aF-0.01900149185456472
aF-0.007230754350852948
aF-0.06691956282666776
aF-0.009425605589861693
aF-0.01796331108458554
aF-0.0099999867541415
aF0.0
aF-0.008954616142396742
aF-0.03499428310447511
aF-0.02763808108904492
aF-0.016723118024545233
aF0.012075608902876712
aF-0.01
aF-0.019999999999999837
aF-0.10035289872768008
aF-0.12045589750586565
aF-0.009999999999999445
aF-0.017355822755160837
aF-0.004609044021517221
aF-0.009851219901836399
aF-0.009994177814007564
aF-0.011615003895411403
aF-0.0048528303644919946
aF-0.028635196752629287
aF-0.038905708434333025
aF-0.02
aF-0.004560791611198692
aF-0.013243221321998256
aF-0.00961090391650314
aF-0.007571006138952875
aF0.0
aF-0.004998559141151183
aF0.0031162724668535335
aF0.0
aF-0.009796830305298989
aF-0.07085015118307512
aF-0.03158128140047381
aF-0.009720715057575012
aF-0.030849198211761186
aF-0.006586816396558939
aF-0.019919695931671165
aF-0.007402178993751417
aF0.0
aF-0.09892939069152426
aF-0.03764268209395788
aF-0.01988981443601657
aF4.493197991815134e-05
aF0.0021794677122545
aF0.005000000000021337
aF-0.005663178460301621
aF-0.5828455607989302
aF-0.017472548173083167
aF-0.009900844429242925
aF-0.009547545775986032
aF0.0020708928363105806
aF-0.09089158835168637
aF-0.009984224433458916
aF-0.006139474214718821
aF-0.019233505344878145
aF-0.06073614425488346
aF-0.02575313214601741
aF-0.04688951496235766
aF-0.03158128140047381
aF1.407690103705228e-08
aF0.004082391401434708
aF-0.13671704816287933
aF-0.02519739524259272
aF-0.00998753581017693
aF-0.0270534301674401
aF0.0
aF-0.02989496287571292
aF-0.03923308671041078
aF-0.024062537181805267
aF-0.017274571354540892
aF-0.03998905322952845
aF-0.013023599854621112
aF-0.030615878424667616
aF-0.01936370110489124
aF-0.04201316412639044
aF-0.009283023065221864
aF-0.009999991102241023
aF-0.644012057724998
aF1.3660181139785177e-06
aF-0.009996405576006062
aF-0.00914607261847822
aF0.0
aF-0.08385940355770345
aF-0.016759753101596515
aF-0.03683862216068324
aF0.0006497103352848272
aF-0.03870108849527495
aF-0.03421269050059175
aF-0.014340628048076216
aF-0.018064155694248636
aF-0.009517550308031721
aF-0.05298303573737617
aF-0.06887572646981817
aF-0.03985398789988542
aF-0.009999999996693754
aF-0.037240321883873745
aF-0.009900714261422304
aF-0.05259122762406498
aF0.0005311064258602549
aF0.0
aF-0.02332740695882425
aF-0.008368526703537495
aF-0.05811421886279757
aF-0.14758704607406514
aF-0.036529718923186544
aF0.0004593792043654976
aF-0.03425281758837058
aF-0.0035771507849993397
aF-0.026101587242415986
aF0.00289072744373886
aF-0.02733965168201534
aF0.0
aF-0.00999999999997369
aF-0.009982200484243552
aF0.0
aF-0.0020927611378091866
aF-0.009389244299511162
aF-0.009833372928590213
aF0.0013071105212208234
aF-0.009994652789125943
aF-0.058022878616681955
aF-0.024991536086732588
aF-0.00957538861664128
aF-0.009999999999600028
aF-0.01877598805980442
aF-0.009999999998868683
aF-0.009999227684716406
aF-0.024062537181805267
aF-0.009584984778807384
aF0.0007359368290781154
aF0.0005729466394678073
aF-0.10096276802518385
aF-0.10146980411513493
aF0.10642665821640142
aF-0.05074047375563377
aF-0.01842735895484441
aF-0.04601265233932567
aF-0.009999854625213354
aF-0.04501674416106901
aF-0.006155360306954721
aF-0.004998825156720197
aF0.0
aF-0.08308144424840216
aF-0.08420239897621917
aF-0.012309117545379604
aF-0.0035421523994617417
aF-0.009734887900433765
aF-0.017611979030651644
aF-0.004184280548050336
aF-0.005303108985318184
aF-0.012509705388737958
aF-0.009994652789125943
aF-0.007847853778368791
aF-0.02489577822659898
aF-0.2148389063471393
aF-0.009766582406575826
aF-0.009985873748587814
aF0.12482892817566595
aF-0.018874985129491803
aF0.0006869189906827122
aF-0.007929275645191042
aF-0.005923398830184955
aF-0.008451659623606146
aF-0.018608760257615188
aF-0.005838891228371405
aF0.0
aF-0.002773213942764301
aF-0.3136849677370052
aF0.0048970061578713035
aF-0.002283795906115462
aF-0.044093248079750264
aF-0.019640854876285807
aF-0.01
aF-0.03032338064579731
aF0.0
aF-0.00999999999997369
aF-0.004276840931635995
aF-0.014510410966392648
aF-0.09636679585837635
aF1.407690103705228e-08
aF-0.02865324453126862
aF0.025649228952020462
aF0.0
aF-0.008979408426620674
aF-0.02273731087762949
aF-0.009856508151272045
aF-0.007656923107737911
aF-0.029304927216542553
aF-0.009999733135523771
aF-0.003736288649635351
aF-0.03247059389904594
aF-0.009387142092667264
aF-0.1600877324824092
aF-0.01999842277428981
aF-0.02969656046621163
aF5.130382752804863e-07
aF-0.026594910810764684
aF-0.05562588048398579
aF-0.15025415320534616
aF-0.21888100702737256
aF0.0
aF0.0
aF0.0
aF-0.07749096277911052
aF0.0005822454513878428
aF-0.009734887900433765
aF-0.0048528303644919946
aF-0.07806240422417675
aF-0.009986850908225337
aF-0.009490123047628614
aF-0.007472582511920634
aF-0.009989989271608367
aF-0.009998043478501188
aF0.0
aF-0.05428100512473613
aF0.0
aF-0.019849102782134004
aF-0.004999999999832437
aF-0.01609722312429225
aF-0.00992437553257047
aF-0.014396935936715599
aF-0.009996053175926747
aF-0.009630215690753417
aF-0.019110612656335197
aF-0.2262717192322196
aF-0.03168948867123681
aF0.0
aF-0.05901624776098115
aF1.7703508636834898e-09
aF-0.0058506806958130205
aF-0.1105140583762672
aF-0.005923398830184955
aF0.0010340370182480097
aF-0.024065609058699238
aF0.0
aF-0.008966988656792232
aF-0.009490123047628614
aF-0.012968551172671941
aF0.0003282745982291324
aF-0.18971731783595785
aF-0.01780264805040617
aF6.121140193604546e-09
aF-0.07063913138843442
aF-0.019245627946786085
aF-0.01688926010071319
aF-0.00669778821434496
aF-0.00983765355914092
aF0.0008666387943329035
aF-0.006270070767340345
aF-0.0171973853752961
aF6.232620128934108e-05
aF0.0
aF-0.009962035303915838
aF-0.019988457114191942
aF-0.00934795922264353
aF-0.008012393277180358
aF-0.09015754228653784
aF-0.038010193693971746
aF-0.009999300036970195
aF-0.04346305295252959
aF-0.08084438926882782
aF-0.03381847694234619
aF-0.0645649798253879
aF-0.02671077971982496
aF-0.022353208987944066
aF-0.009999965661162532
aF0.003708874299422107
aF0.0
aF0.0
aF-0.014102662086101244
aF-0.06135497066414497
aF0.10923037987404721
aF-0.009107728589418529
aF-0.04381312138243982
aF-0.017921531451574286
aF-0.016411708501005876
aF-0.03485768925095909
aF-0.01
aF-0.012455787747854451
aF-0.029886636771652354
aF-0.009999300036970195
aF-0.005838891228371405
aF-0.010776324865305135
aF-0.0032647364016930593
aF-0.019999831969088236
aF-0.016708933823889494
aF-0.006640087674572996
aF-0.012995481398817003
aF-0.003938616748274991
aF0.0
aF-0.015459797979632317
aF-0.10857202540956173
aF-0.009999991102241023
aF-0.06004650069741835
aF-0.18150063009869963
aF-0.01
aF0.0013888759673575657
aF-0.01
aF-0.01566890441239514
aF0.0
aF-0.042922072697664466
aF-0.009490123047628614
aF-0.0074839079573382206
aF-0.010176755397893665
aF0.0
aF0.0
aF-0.04274909775223114
aF-0.1065476562489271
aF-0.01799011188676887
aF-0.01857086756404881
aF0.00286034466944844
aF0.0
aF-0.008447134746289381
aF0.0
aF-0.4051539101531618
aF-0.009868242545901925
aF-0.02739762579179085
aF-0.14585878959589052
aF-0.01
aF-0.004609044021517221
aF-0.009734887900433765
aF-0.03421269050059175
aF5.130382752804863e-07
aF-0.00928740614089341
aF-0.018581061129918922
aF-0.009547545775986032
aF-0.026077595793111884
aF-0.008292868059409427
aF-0.0074142047924346775
aF0.0
aF-0.04360325790472332
aF-0.009998283269708742
aF-0.019902064176681198
aF-0.008292868059409427
aF0.01743765351081881
aF-0.01902612196177148
aF-0.056745023492164204
aF-0.049673792921293876
aF0.003222854738013043
aF-0.11648305433478416
aF-0.008062361785601702
aF-0.059087303838129324
aF-0.009999991102241023
aF3.617178112944909e-05
aF-0.01645932018329084
aF-0.009999999999600028
aF-0.009924048638767611
aF0.0
aF-0.035727558106680164
aF-0.0072907750004602085
aF-0.029099735177637573
aF-0.025609217149501404
aF-0.039994754680695785
aF-0.16575602528039657
aF-0.05686848498668655
aF-0.009868273743948268
aF-0.05048232383887507
aF-0.009970765909919448
aF-0.016524570888120142
aF-0.029442327703929558
aF-0.04436646094331895
aF-0.02505091382146815
aF-0.019844531867109744
aF-0.018497204136205085
aF4.90900705513142e-05
aF0.01532066377342241
aF-0.004840383142562116
aF-0.015329709082441441
aF-0.007937549720751174
aF-0.11930244200251255
aF-0.009567554244651534
aF0.0
aF-0.0029616994150924777
aF-0.007733414496892929
aF-0.00832355964285135
aF-0.022276169500093982
aF-0.0733375997514847
aF-0.005402088892053791
aF-0.07595205617791441
aF-0.004501431248494908
aF-0.034338552605755086
aF-0.13467395974907265
aF-0.005448308223568165
aF-0.022587465009204145
aF0.0
aF-0.009998900199829939
aF-0.02668827049436414
aF-0.04951885365758847
aF-0.00999999497699153
aF-0.01999840337336354
aF-0.0270534301674401
aF-0.017355822755160837
aF-0.00940385851568574
aF-0.015797777379360715
aF2.1257662297102798e-13
aF-0.009999999999992331
aF-0.029337677490227608
aF-0.11888137279675898
aF-0.01
aF-0.018430045997317915
aF-0.006670720358086421
aF-0.026297039914338162
aF-0.02262379773423054
aF-0.01422000729313309
aF0.0
aF7.505063237545073e-13
aF3.01747862252455e-10
aF-0.009999991102241023
aF-0.019526235643382378
aF-0.051295318271283086
aF-0.00519741331675568
aF-0.027607983130845788
aF-0.009999999999381474
aF0.0
aF0.0
aF-0.2921656348171322
aF-0.014551840799312887
aF-0.028483203325497065
aF-0.007571006138952875
aF0.34157315158480966
aF-0.01664329493046222
aF0.0
aF-0.00956091696867776
aF-0.009754262789493102
aF-0.005834659390214019
aF-0.03126723898110644
aF0.0
aF-0.04332255626312626
aF-0.005
aF-0.005917529780676246
aF-0.018967653430925262
aF-0.005917529780676246
aF-0.009999969150686594
aF-0.012209264702949276
aF0.040521785438631365
aF-0.08192954075270532
aF-0.019962035010079374
aF-0.06300353620955
aF0.0
aF-0.07754899698676068
aF-0.009983844568592257
aF-0.03848331287642493
aF-0.0056603374571064895
aF-0.0016417369655776228
aF-0.0600872682627598
aF-0.009714524689584697
aF-0.009889754596429804
aF0.0
aF0.0
aF-0.01999999968785384
aF0.0
aF-0.006336964727384937
aF-0.009986697494531635
aF-0.013717296021067554
aF-0.08922143080005002
aF-0.027917505161560285
aF-0.009999999732858407
aF-0.017292682413024008
aF-0.01936370110489124
aF-0.014286966986165666
aF-0.00998753581017693
aF-0.01999999999735951
aF-0.01592467103814793
aF-0.026908004355839184
aF0.0
aF-0.03125901504911653
aF-0.019271042966635024
aF-0.038454919216066114
aF-0.00998931425101814
aF-0.01772847818473577
aF-0.008889622518638472
aF-0.00996765112946524
aF-0.009999999971503042
aF0.0
aF-0.01075193599805675
aF-0.05889589598659842
aF1.6000723520726013e-06
aF-0.002612929940080418
aF-0.016485074782610035
aF-0.02443282799571786
aF-0.014455324300034017
aF-0.01991917438238401
aF-0.00999974067739033
aF-0.06396914813182447
aF-0.009796830305298989
aF-0.009983162250076933
aF-0.0974304228128721
aF0.00443280543444816
aF-0.04469631747458288
aF-0.009999668335446249
aF-0.005569947726662326
aF-0.009999999999997053
aF-0.009833290887571036
aF-0.0296625630790884
aF-0.02423203805811317
aF-0.018849005769777355
aF-0.01577101139172083
aF-0.009985873748587814
aF-0.006557756058373197
aF-0.01
aF-0.00999198169208506
aF-0.004989489280976933
aF1.794771564700426e-10
aF-0.027269316462734144
aF-0.00669778821434496
aF0.009987906996007899
aF0.011295770549021585
aF0.014754981046560846
aF-0.008570515554359613
aF-0.004779604253512484
aF-0.0035421523994617417
aF-0.002258566942453292
aF-0.022973134013875025
aF-0.008456396135665298
aF-0.009951163179628892
aF-0.034045185379004736
aF-0.00999999819989908
aF-0.008098596728835903
aF-0.21815835171093534
aF-0.005523319322668169
aF-0.2537150815907795
aF-0.02731121881202936
aF1.71516914106995e-07
aF-0.04789107567014448
aF-0.20540630958026676
aF-0.18774283122017466
aF-0.00956091696867776
aF-0.0023966693601943805
aF-0.030461471760059138
aF-0.008012393277180358
aF0.00443280543444816
aF-0.016901923482193576
aF-0.009994652789125943
aF-0.03880535935154571
aF0.0
aF-0.0037056348821987153
aF-0.07232103104764856
aF-0.02767666502769948
aF-0.009511886391478803
aF-0.047043792504221714
aF-0.006018676583775447
aF9.99166381853156e-07
aF-0.017410475473801416
aF0.002631719775981621
aF-0.03951659938432227
aF0.0
aF-0.07262683608250281
aF-0.01998270040271942
aF-0.2836636821707012
aF-0.006430089298909542
aF-0.02936880426998753
aF-0.00997831836396009
aF-0.003573659662347757
aF-0.01784759443851556
aF-0.005250645537152374
aF-0.03300810314741328
aF-0.01329297424460433
aF-0.054674435742178014
aF-0.009991826828889059
aF-0.005740259971674488
aF-0.009999999999999986
aF-0.009033876793413059
aF-0.00836902597483538
aF-0.030922188056866154
aF0.0
aF-0.0677031507404294
aF-0.017832623037942495
aF-0.019104158133747176
aF-0.02594947340689561
aF-0.005346245559609443
aF0.0
aF-0.005931885804873213
aF-0.005598036415306562
aF-0.02731358523328438
aF-0.01491470537785161
aF-0.039924101332111286
aF-0.11809465322740506
aF-0.03966603563120166
aF-0.009387142092667264
aF-0.01975099234810332
aF-0.009987123112707295
aF-0.00571885770032521
aF0.0
aF0.0005729466394678073
aF-0.009999999999876939
aF-0.06410243046776014
aF-0.03913888203440426
aF-0.007684545373410845
aF-0.005923398830184955
aF-0.009385018319165456
aF-0.004609044021517221
aF-0.009105178603282147
aF-0.026503716469829845
aF-0.009491046198401206
aF-0.009994652789125943
aF-0.019999677194859435
aF-0.004999999999986845
aF-0.009999999992828093
aF8.526911767376078e-05
aF0.0005103640269241938
aF1.2351614976329195e-05
aF-0.03801112927289878
aF5.247055583712524e-06
aF-0.030615878424667616
aF-0.019440393182696126
aF0.002423552736841008
aF-0.03991147048373802
aF-0.13055189353412466
aF-0.007050186882326091
aF-0.0009655427151475467
aF-0.007463376951782438
aF-0.004755892786275422
aF0.0
aF0.0
aF-0.02549415022685434
aF0.0
aF-0.004117332216083231
aF-0.006534581616511773
aF-0.008456396135665298
aF6.217248937900877e-17
aF-0.017189790143473403
aF0.0
aF-0.006864039970006698
aF-0.00997649497628325
aF-0.12284018177241923
aF-0.09107208098701851
aF-0.026564775458803883
aF0.0
aF-0.03619573964068844
aF-0.009987123112707295
aF-0.009033876793413059
aF-0.0471416741231718
aF-0.01700515616332056
aF-0.019776859718213587
aF-0.009733283476546326
aF-0.06353557689224076
aF-0.06691956282666776
aF-0.005917529780676246
aF0.00015293238648262487
aF-0.027917505161560285
aF-0.028586044627002594
aF0.00023791614235396774
aF0.0
aF-0.00999945621098935
aF-0.007500928153676663
aF-0.009796830305298989
aF-0.009104158171463803
aF0.020783603737228245
aF-0.01
aF-0.0888495858982978
aF-0.016307709341575476
aF-0.01999988809912817
aF0.0
aF0.39152358272815996
aF-0.0074839079573382206
aF0.0005374413639934128
aF-0.019999831969088236
aF0.014859774983968682
aF-0.00999897096500747
aF-0.04798535209421617
aF0.026505305397060364
aF0.0005374413639934128
aF-0.0474721482008783
aF0.0
aF-0.009999992646608911
aF0.0
aF-0.04947967074408136
aF-0.01029864776397106
aF-0.025679049361179464
aF-0.009999999999999998
aF-0.0550657794486562
aF-0.04811718185653875
aF-0.019243024033706806
aF-0.028818681294180356
aF0.0
aF-0.008966988656792232
aF-0.0291004262373269
aF1.2178497050449044e-05
aF-0.06469639481670857
aF0.004239210335829913
aF-0.029979013116522034
aF-0.04220191450895146
aF-0.009475055308278515
aF-0.029367807243891368
aF-0.02812229267448992
aF0.014319732984066403
aF-0.025973668230842677
aF-0.005115249900167227
aF-0.01999989507638151
aF0.0
aF-0.016804414027297484
aF-0.04279040030622503
aF-0.009999992646608911
aF-0.0073397580311224606
aF-0.0076912791467591834
aF-0.02254629018580894
aF-0.0031134020869739375
aF-0.004755892786275422
aF-0.01778678478293415
aF-0.01861360395563577
aF-0.009389244299511162
aF-0.005140724353655066
aF0.00029845509614225495
aF-0.053861855996950134
aF-0.01970500380478203
aF-0.004848950815207599
aF-0.0053219025680722246
aF-0.009999999999600028
aF-0.007233812557198
aF-0.060780000646301596
aF-0.007500928153676663
aF0.1357369313265897
aF0.0
aF0.0
aF-0.07475566109701015
aF-0.04340903513708883
aF-0.008726209305296896
aF0.0004977865980205076
aF-0.019414478739599964
aF-0.009845572803150243
aF-0.0099999763667456
aF-0.02834342241297927
aF-0.00934795922264353
aF-0.02851352009445588
aF-0.08916656420837654
aF-0.008751571773640106
aF0.1447867126934485
aF-0.035029309927689836
aF-0.013039670426446544
aF-0.006155360306954721
aF-0.009915725318727192
aF-0.006704765721524604
aF-0.13495267434749922
aF-0.10366014630230236
aF0.0
aF-0.009983844568592257
aF-0.02318173126143361
aF-0.008051062061973884
aF-0.007294899997393636
aF-0.3263578172878777
aF-0.19469336602457843
aF-0.09355175606064632
aF-0.09420225842734936
aF-0.007711695528801849
aF-0.009999999971503042
aF-0.009951299638937467
aF2.1156597951321745e-09
aF-0.09534670630080151
aF-0.03214634353318781
aF-0.0016417369655776228
aF-0.007947944724153961
aF-0.009999673791989724
aF-0.00997831836396009
aF-0.019977003282619428
aF-0.05772566518097907
aF-0.006608735483739355
aF-0.016955453323687253
aF-0.01795049371595701
aF-0.009999994100479479
aF0.0005327511890195247
aF-0.005743951914247021
aF-0.009104158171463803
aF3.01747862252455e-10
aF-0.006565305462714085
aF-0.023946354890580775
aF-0.004625422619072158
aF-0.02514691969922427
aF-0.21407557709750596
aF-0.35301870900623367
aF-0.0067089368797170895
aF-0.009325015393856459
aF-0.015245692930658347
aF-0.036687477354595786
aF-0.009912344237479328
aF0.0
aF-0.009544404489212292
aF-0.00991540165409778
aF-0.11887704076683439
aF-0.007251327209422649
aF-0.009823832251529116
aF-0.01811211354009555
aF-0.009999982341235092
aF-0.007851608020827074
aF-0.019999091966220787
aF-0.01742616704719295
aF-0.009679382053758172
aF-0.007234172465843394
aF-0.0037034625440152697
aF-0.007231881457791604
aF-0.015054959537115987
aF-0.008949668120148788
aF-0.009994652789125943
aF-0.009996591467164835
aF-0.049580495242431744
aF-0.009830276389715939
aF-0.009140917153326293
aF-0.00836220525185187
aF-0.01900149185456472
aF-0.012408192403045814
aF-0.027444374536968803
aF-0.051708489505495836
aF-0.00999992464223499
aF-0.050949577792005846
aF-0.008938068368082799
aF-0.00999993803565911
aF-0.009104158171463803
aF0.0
aF-0.016102166026968668
aF-0.000999500418254563
aF-0.005094510849556281
aF-0.0029216127129710794
aF-0.01739006426034667
aF-0.03054352639656571
aF-0.009789516850977684
aF4.0900181473302326e-05
aF-0.009999128109508714
aF-0.0099999867541415
aF7.505063237545073e-13
aF-0.019995031309366765
aF-0.01427599508962819
aF-0.1667816410817602
aF-0.011613732752836784
aF-0.07695122120341036
aF-0.01837039010429075
aF-0.019856508054603192
aF0.0
aF-0.2564398610258544
aF-0.008211653275327038
aF-0.008791232163217417
aF-0.016903543502997796
aF-0.017463052060094547
aF-0.00999976533437949
aF-0.00899304052690268
aF0.0023365453880473566
aF-0.22737761830329078
aF-0.02133361672947136
aF1.7703508636834898e-09
aF-0.009999999999999995
aF-0.008430046101631396
aF-0.02575313214601741
aF-0.02325091174326157
aF-0.00938171997784563
aF-0.021666932495066495
aF-0.00346675358353296
aF-0.00832806373674518
aF-0.009868273743948268
aF0.004449428736884411
aF-0.06802655499451088
aF-0.10805474286722547
aF-0.008889622518638472
aF-0.020685660012630537
aF-0.004999999971129293
aF-0.1667816410817602
aF0.0
aF-0.01575704434584428
aF-0.017274571354540892
aF-0.004703037018481606
aF0.0
aF-0.007159246096289662
aF-0.05271890664624485
aF0.00030341161563257835
aF1.2351614976329195e-05
aF-0.00999971625166133
aF-0.02421731335346143
aF0.00018427889042643586
aF-0.009999776789846133
aF-0.008964615494295208
aF-0.03465601285893237
aF-0.08359030118443458
aF0.0
aF-0.080648406776635
aF-0.03617939979185312
aF-0.00999269472371252
aF-0.01647626553963048
aF-0.037230210307115465
aF-0.07806240422417675
aF-0.009988189564737985
aF-0.019079032029080595
aF-0.029999967600396638
aF-0.00961090391650314
aF-0.09089158835168637
aF7.505063237545073e-13
aF-0.030070977689329363
aF-0.0028563205321657545
aF-0.009021850988889038
aF-0.01549415022725431
aF-0.008814145414622028
aF-0.08019367748205199
aF2.295580535238706e-07
aF1.71516914106995e-07
aF-0.00998753581017693
aF-0.009999956972063517
aF-0.04112485518863845
aF-0.03234969165624724
aF0.0
aF0.00029845509614225495
aF-0.04646370060016826
aF-0.06413045010393584
aF0.0
aF-0.017611979030651644
aF-0.021941057255340072
aF-0.1097561565678401
aF-0.021262717659721958
aF-0.0183664476544022
aF-0.017339500451579955
aF-0.00999945621098935
aF6.217248937900877e-17
aF-0.00755070782261522
aF-0.007231881457791604
aF-0.02665720836289469
aF-0.06755762188674047
aF-0.037331352797408734
aF-0.01981859643571282
aF-0.012413929322686628
aF-0.0076912791467591834
aF-0.03137612670589169
aF-0.10060035389137585
aF-0.023855010508488615
aF0.0217473947393187
aF-0.009992624994347239
aF-0.009658847888398226
aF-0.014816208463896221
aF-0.06367236488507289
aF-0.06300353620955
aF-0.22224816281103002
aF-0.018977530747588095
aF-0.1128186464188744
aF-0.04469631747458288
aF-0.29446596104977546
aF-0.1088975987887716
aF-0.009999999940778681
aF6.693443459604431e-08
aF-0.16684311041385322
aF-0.005029233502470587
aF-0.19202328933965057
aF-0.1065024024481558
aF-0.01678280080981591
aF-0.005650976928194252
aF-0.04858249902997696
aF6.121140193604546e-09
aF-0.0939696320522222
aF-0.018769134495564582
aF-0.062281943946184755
aF-0.06871975981310598
aF0.0
aF-0.03591266041029264
aF-0.019999800346020804
aF0.0
aF0.0
aF-0.038496361286278175
aF-0.01
aF-0.009796830305298989
aF-0.026949137375164627
aF-0.08606032101846128
aF-0.027600623440429694
aF-0.007504064850892992
aF0.0031162724668535335
aF-0.02957838848574603
aF0.09362731886866019
aF-0.0313330431773404
aF-0.059090038710386296
aF-0.09347202736137922
aF-0.03
aF-0.01512971311668503
aF-0.0067300798510683425
aF-0.04943042823758991
aF-0.005115249900167227
aF-0.009999996713020681
aF-0.029999800346020806
aF-0.0074513678619523805
aF-0.08810453208944095
aF-0.042159893844499724
aF-0.02452638415173541
aF0.0
aF-0.01133991909952114
aF-0.00755070782261522
aF-0.035644929140576126
aF-0.025721867507513332
aF0.0
aF0.0001283308436771987
aF0.0
aF0.004653786246561503
aF0.04067577350505982
aF-0.04222514214902661
aF-0.022649722412837296
aF0.0
aF-0.011615003895411403
aF-0.017913523032272644
aF-0.0469055876819964
aF-0.021003849685310896
aF-0.006715738013188846
aF-0.009999999706163536
aF0.0
aF-0.01975749213955435
aF-0.05187028028919488
aF0.0
aF0.015242924921703142
aF-0.12045589750586565
aF0.0
aF-0.16926512707365385
aF1.6364599619844712e-09
aF-0.006362496577590694
aF-0.009687597920744565
aF-0.09395392751443617
aF-0.1095315174809765
aF-0.008451659623606146
aF-0.009999999998868683
aF-0.016175756161794983
aF-0.10578494444168587
aF-0.04236442987129888
aF-0.007946394603412805
aF0.0
aF-0.0033325512537354636
aF-0.01991969593164218
aF-0.01766889479568022
aF-0.009999999999958643
aF0.025649228952020462
aF0.0
aF-0.06695061886726626
aF5.301806982152768e-05
aF-0.015449765479616252
aF-0.07767418195658952
aF-0.045016139702663764
aF-0.009952400478430339
aF-0.009975512693171663
aF-0.006534581616511773
aF0.00039940756706570934
aF0.0
aF-0.016171404562692324
aF-0.00835397733397616
aF-0.029996087372158517
aF-0.029996087372158517
aF-0.0254123661798284
aF-0.028111624968255977
aF0.00030341161563257835
aF-0.007738524511189703
aF-0.011105940641745412
aF-0.007802648050806139
aF-0.009912344237479328
aF-0.006534581616511773
aF-0.02370694900149372
aF-0.009983162249326428
aF-0.007499999992869988
aF-0.0048528303644919946
aF-0.01798332781497655
aF-0.009999508001546012
aF-0.0038571484124596753
aF-0.038438574861931855
aF-0.009833372928590213
aF-0.007203161119549238
aF-0.014839648706584097
aF-0.10436038239856357
aF0.0
aF-0.00998997964437527
aF-0.006565305462714085
aF-0.053611053162906055
aF0.0
aF0.0
aF-0.0014647338188552967
aF-0.00944241346956577
aF-0.0529642927849807
aF-0.010765398152217687
aF-0.008760066895129918
aF-0.028163745993923996
aF-0.008573865516691419
aF0.0010807340053250525
aF0.03979331946509174
aF-0.02968049756256292
aF-0.03756477160376905
aF-0.009999965661162532
aF0.0
aF1.6364599619844712e-09
aF0.0
aF-0.006365558058012797
aF-0.009999993878859807
aF-0.03251376288105925
aF0.0
aF-0.009962576936096503
aF0.0
aF-0.009999300036970195
aF-0.009986035922662359
aF3.4648192944852774e-07
aF-0.026981569467285377
aF-0.0035421523994617417
aF-0.03923308671041078
aF-0.00755070782261522
aF-0.03751596507257023
aF-0.0221816639143363
aF-0.005838632471924419
aF0.0
aF-0.13685127339919495
aF-0.00999999710389745
aF-0.06311716839332869
aF-0.00999999282306391
aF1.6364599619844712e-09
aF-0.0066073375228067645
aF-0.10688120323130162
aF-0.017903937599274077
aF-0.018075506915043088
aF-0.003573659662347757
aF-0.004008199997726544
aF-0.02463981452613169
aF-0.019632397543433298
aF-0.009912344237479328
aF-0.00999872765849254
aF-0.016608683449165877
aF-0.10011384233725383
aF0.0
aF1.6364599619844712e-09
aF-0.006456882706953116
aF-0.00755070782261522
aF-0.005082244548337385
aF-0.05975480447719855
aF-0.009696550520314828
aF-0.029886636771652354
aF0.0
aF-0.0025194484385297647
aF-0.009996611588808558
aF0.0
aF-0.012730824588103849
aF5.301806982152768e-05
aF-0.009821288469435075
aF-0.05236421514121007
aF-0.009983162250076933
aF-0.025239689363788464
aF-0.019907396978398585
aF-0.019049779929363853
aF0.004326900017445469
aF-0.00999999999261524
aF0.0
aF-0.006586816396558939
aF-0.007230754350852948
aF-0.012278719552743957
aF-0.007879525686982025
aF-0.019955844382997884
aF0.003672954580562485
aF-0.017540346261238186
aF-0.009999999999600028
aF-0.025752284692772888
aF-0.009912344237479328
aF-0.008682202093337353
aF-0.009714524689584697
aF-0.009283023065221864
aF-0.009999932879015986
aF-0.009452589500718879
aF-0.029096213575337062
aF-0.0051801167654886284
aF-0.04970264342140588
aF-0.009683842842164947
aF-0.009999999999999995
aF0.004082391401434708
aF-0.019927531801077154
aF0.0
aF-0.017987717338307584
aF-0.019897325850230862
aF-0.009999965661162532
aF-0.009833372928590213
aF-0.009999999971503042
aF-0.009434003146923832
aF-0.12246065074682118
aF-0.009817632255140443
aF0.0017781669285175483
aF-0.009999970549020925
aF-0.002281585387060084
aF-0.004409552633672626
aF-0.004318262068901082
aF-0.017472548173083167
aF-0.0066278047241474245
aF-0.009827946291217035
aF-0.009996012279533376
aF-0.009999999999630731
aF-0.061776550554761535
aF0.0
aF-0.029750456442020262
aF-0.029106405593670615
aF-0.13975911553487286
aF-0.005110791603601258
aF0.0
aF-0.03988593680862255
aF-0.016219316587461643
aF0.018832599462591644
aF-0.019815981492174343
aF-0.006565305462714085
aF-0.01665158865900396
aF-0.009833372928590213
aF-0.00755070782261522
aF-0.08013632783009078
aF-0.009999999786962026
aF-0.07476352339493471
aF8.103795644265333e-07
aF-0.012893669423793008
aF-0.009103031366884843
aF-0.0066278047241474245
aF-0.009912344237479328
aF-0.04346243107773294
aF-0.009999965616620575
aF-0.009986850908225337
aF-0.018915095772086672
aF-0.007728722344333924
aF-0.009999999999381474
aF-0.01706708383371211
aF-0.006823428823340693
aF-0.009999652095762354
aF-0.008991910716682936
aF-0.05784289723712828
aF-0.07818703697911415
aF-0.007524966462063401
aF-0.006757376352142186
aF-0.10293619355927772
aF-0.00998931425101814
aF0.0
aF-0.00851064825306075
aF-0.014755643541537553
aF0.07308922535227624
aF-0.006917056904301975
aF0.24747721623880073
aF-0.03762233897259491
aF-0.20881904248067298
aF-0.007237401930578811
aF0.026950662239285116
aF-0.004873620674244184
aF0.43558299665961564
aF-0.02465414754773423
aF2.1257662297102798e-13
aF0.0
aF0.8938066814100731
aF0.0
aF-0.005096845873212619
aF-0.03233838470890347
aF0.0008666387943329035
aF0.23363310124943926
aF1.9380960703971812
aF0.4105283241539754
aF-0.007928802807146673
aF-0.11670108115264079
aF0.025011009165393408
aF-0.37529862854643825
aF0.0
aF0.007608048715765901
aF-0.012535188019489326
aF-0.01005892388656599
aF0.0
aF-0.015340733296520463
aF0.04243197786197818
aF0.0
aF0.0
aF0.44732636747869864
aF0.10839613519114816
aF-0.05607767720566771
aF-0.02482705836934986
aF0.02535123165318383
aF-0.010025454531883313
aF1.1537267496486426e-06
aF0.006191873173227863
aF0.0
aF0.0
aF0.006917659194623339
aF0.005145910234357785
aF-0.055930125018536316
aF-0.029986752941837433
aF-0.04480234129131184
aF-0.014933693381917627
aF0.19333738559841404
aF1.7703508636834898e-09
aF0.06652395555667635
aF0.012009548615402214
aF-0.0023405113597714756
aF1.6682250086445771
aF-0.0008439206840200917
aF-0.0769765217547896
aF0.6497345350488338
aF-0.013333329730958195
aF-0.02217237126108891
aF-0.007499999984471527
aF0.003033252376753879
aF-7.809142807833252e-05
aF-0.005454480685702387
aF-0.008882041345590275
aF8.982814825309049e-11
aF-0.00998753581017693
aF-0.011849021028629142
aF0.6012926809397642
aF0.020118323820632583
aF-0.007999999978813618
aF-0.024480707379620548
aF-0.012222219850041623
aF0.028921584994566603
aF0.008615159877446807
aF-0.009998255271522136
aF0.0
aF0.0
aF-0.0011091650633582575
aF0.09169899792546421
aF-0.03464350109734947
aF0.038175610781296616
aF-0.028835610524736873
aF0.010659924297752438
aF-0.005838891228371405
aF0.17886553731074317
aF0.18200901867238
aF-0.015118122384525331
aF-0.030319138557187576
aF-0.009931496679106947
aF0.0933831784167886
aF-0.00666655565533336
aF-0.01457677656808524
aF0.0
aF-0.009347959201679693
aF-0.025421056891289283
aF0.264193633230756
aF-0.009999999732858407
aF0.006294127097342631
aF0.2895585989423887
aF-0.009999999999990735
aF-0.05296959546380111
aF-0.006458130268970268
aF0.06970930524010438
aF-0.019424234374543766
aF-0.009903893307557168
aF0.0
aF0.0591574439655647
aF0.014592007453599301
aF-0.005042624857054749
aF0.0
aF-0.01
aF4.735169353219382e-06
aF-0.014968301108778725
aF0.010031728600592038
aF-0.01476408828129803
aF-0.009996308875396301
aF-0.03833805697383042
aF-0.009999910638537005
aF0.09798503762142219
aF0.12126230504000902
aF0.005405363925284254
aF-0.0018642374857983472
aF-0.018037275396590093
aF-0.06933690346308638
aF0.02607563735931321
aF0.011734238020241101
aF0.022852355441987847
aF-0.009999999786962026
aF0.0
aF-0.009999999999995202
aF-0.009999999323183476
aF0.0
aF0.005508850088879392
aF0.03232465095247141
aF0.002747248687731854
aF0.0
aF-0.00998753581017693
aF-0.05790394003299386
aF0.1858735416165956
aF-0.013194573674956408
aF-0.02499984439729781
aF-0.0288865405425473
aF-0.028808176929503944
aF5.349873877236177e-12
aF-0.01626487304111287
aF0.0159498426811383
aF0.00020590452305115602
aF-0.0039660479272423214
aF0.06831795238595971
aF0.013840699300257718
aF0.028862077117941334
aF-0.01996184775802816
aF-0.004351568080497434
aF-0.01875877306483782
aF-0.019163380317129407
aF-0.00999999497699153
aF0.17394483952616932
aF-0.02688728669452882
aF-0.01
aF0.0
aF0.015457554329214345
aF0.0
aF-0.02449041298350178
aF0.07254254179142255
aF0.8075484253685425
aF-0.00999974907257554
aF-0.02553892394941762
aF-0.0043521591897019585
aF0.5209338036841588
aF-0.0744647411931808
aF-0.030922468654728193
aF-0.009919695931671165
aF-0.016597917631913116
aF0.03382020151869684
aF-0.02414811269314271
aF0.0005311064258602549
aF0.44281786963064274
aF-0.009354130886205812
aF0.0
aF-0.009999508001546012
aF0.41382929739391744
aF-0.009999227684716406
aF-0.017796892879174277
aF-0.004999995815035359
aF-0.014999993376947688
aF-0.004999878068321559
aF-0.00999325953654789
aF-0.007488804290659896
aF0.005002268098294909
aF0.0
aF0.013219005737212967
aF0.0
aF0.4715364596275154
aF-0.02998658404374911
aF-0.059175540828568844
aF0.07589981932946943
aF-0.014998424981090233
aF-0.019542070532081908
aF0.013834545488487454
aF-0.026026021738845707
aF0.0046824330960433605
aF0.0
aF-0.019807362529176625
aF2.295580535238706e-07
aF-0.009861022173884225
aF-0.009999999999876939
aF-0.019006292572271884
aF-0.0414595991571122
aF1.9777735005277464e-12
aF0.012993634952473864
aF-0.026606395314773906
aF0.005720781454362341
aF-0.006666659999847271
aF0.0
aF-0.004219311809017119
aF-0.024424234364497702
aF0.0
aF0.13323075272368776
aF-0.03845433312745318
aF-0.025676809120920484
aF0.020873064078274467
aF-0.008792574735318671
aF1.1906695706848482
aF0.0
aF-0.007962557296967359
aF-0.011183108208539138
aF-0.02175286812142758
aF-0.028654186706586683
aF-0.02415771831111744
aF0.19970818186633874
aF0.019619641153018806
aF-0.014914730882264709
aF0.0
aF0.002500027161467718
aF-0.01877221570265632
aF-0.022294210600350552
aF-0.004868273679576085
aF-0.10462002964089218
aF0.01680913247241914
aF-0.007600721205281168
aF0.0
aF-0.037015010321604674
aF-0.002575290881522935
aF-0.01418409191558348
aF0.014166117286089372
aF-0.009999508001546012
aF-0.01
aF0.022205747781189843
aF-0.009999999999990735
aF0.015444992751449197
aF-0.018365291248247408
aF3.8825610475523576e-08
aF-0.006081446991611218
aF-0.009999023388807952
aF-0.009816316388200089
aF-0.00920687312911786
aF0.0
aF-0.014194386169064108
aF0.04933362343354791
aF0.05379394196001114
aF0.0
aF-0.009991968439473678
aF-0.012271478536978016
aF-0.019991968427377587
aF-0.007460293592018817
aF1.1059339607433217e-07
aF-0.009999733135523771
aF-0.10375549134365956
aF-0.05480231584877592
aF0.018821825468651424
aF-0.07477937595751039
aF-0.00683480279319838
aF-0.0065974161636322155
aF-0.02235139151801425
aF0.0817958145250473
aF-0.0006562462914596655
aF-0.03863327774860094
aF1.9777735005277464e-12
aF-0.0392976759885342
aF-0.01052688749432324
aF-0.009837452551202617
aF-0.03211601329674665
aF0.0
aF0.0
aF0.04172336708092528
aF0.03373904200397391
aF-0.009999999998286657
aF7.598935224966575e-05
aF0.47721945629001994
aF0.004231329884475359
aF-0.03779758902239273
aF-0.0005129023520683432
aF-0.012335796833436878
aF0.005056819324528488
aF-0.012152238147745718
aF-0.01
aF-0.00999325953654789
aF0.010880938124461031
aF-0.012499831969088236
aF0.7845832389956933
aF0.18665589866050583
aF1.4302100740248848e-06
aF-0.00612380256231038
aF0.0
aF0.0
aF0.016313826213641
aF-0.008387551752396884
aF-0.02405100763844753
aF0.0
aF-0.04197743656375156
aF0.002649561253096972
aF-0.009333203944805383
aF0.00013450390706928536
aF2.620622539399977e-05
aF0.0002465502062802003
aF0.0006264256417363549
aF0.0
aF0.0343016337709578
aF-0.009796510550242847
aF0.0038365908617564726
aF-0.009999999999999993
aF-0.0060685139565267165
aF-0.028209343470375514
aF-0.004993214214437997
aF-0.019715441540999475
aF0.23322072031632338
aF-0.026492892783867378
aF0.15848330451741238
aF-0.00884690287047014
aF0.012655006468881565
aF0.44707652759246413
aF-0.00333333
aF-0.017728724471757606
aF-0.009999999999992107
aF-0.01624880333954593
aF-0.01904024567117589
aF0.0343219925777091
aF-0.009929619447760555
aF-0.021148165560865434
aF-0.03615528738194657
aF0.04703082148778347
aF0.018319890109902492
aF3.8825610475523576e-08
aF-0.014885353901427225
aF-0.0033319035665120367
aF2.096383733274365e-11
aF-0.005957157737803414
aF-0.01499990398616469
aF0.0033895105495529397
aF0.21119095255904152
aF-0.009999999999990735
aF-0.03721137429588203
aF-0.029985270780936643
aF-0.00837988114235158
aF-0.011468790346201088
aF-0.006698142174198089
aF0.7833432176254941
aF-0.009999745916151374
aF0.0
aF0.005513486461617676
aF0.414386525622157
aF0.03216907372053336
aF0.020493138053951074
aF0.5197815909447616
aF0.004029242174979514
aF-0.009353553609495106
aF-0.05533817255970103
aF0.0
aF1.086689042415154
aF0.005803416858446741
aF-0.038404358411584585
aF3.4969732776168885e-10
aF0.0028898871401663484
aF0.46538080285561223
aF-0.006081446991611218
aF-0.008682165790803829
aF-0.008486333427697666
aF-0.009999995781949982
aF2.007216595835835
aF0.0005544753488008625
aF-0.10361896742319712
aF0.03323822472178817
aF0.0
aF0.0
aF-0.01586392582015099
aF0.06484720432384584
aF0.04111631521769641
aF0.0958853709173669
aF-0.013333317771621351
aF0.04334577006827101
aF-0.001587509944150235
aF0.7500147703270126
aF-0.03491234121595332
aF-0.08197083407488964
aF0.006929078615191766
aF-0.009998918498496307
aF-0.06865535965335252
aF-0.008075544779095684
aF-0.010273081763422669
aF-0.0232663384600958
aF-0.007017318401133414
aF-0.009991874542701227
aF1.3780358816157152
aF0.22756783363892222
aF-0.046464745542020944
aF0.0
aF-0.0056603374571064895
aF-0.00993562224336974
aF3.8825610475523576e-08
aF-0.02228809114084641
aF-0.05769207952875726
aF0.0004450017899395631
aF-0.03294178521425762
aF0.0893568400966139
aF0.01591850190980135
aF0.00797805569057782
aF-0.009991968439473678
aF0.012510212426012923
aF-0.04194624349597772
aF-0.019999999999175504
aF-0.0273116480159853
aF-0.024720811164170957
aF0.0
aF-0.0693821297685159
aF-0.00999999985004269
aF0.8982614185817853
aF-0.010741313848803115
aF-0.019999247245248822
aF-0.01616701236395785
aF-0.009823925326450609
aF-0.005838632471924419
aF8.526911767376078e-05
aF-0.01991355056582482
aF-0.004997860347628403
aF-0.011789866831439698
aF-0.006544412257197077
aF-0.004485544788568469
aF-0.03150322841203396
aF0.010440626470202791
aF-0.009941011709825474
aF-0.009788206275834493
aF-0.007777617540501709
aF0.2682253085800246
aF-0.05451299387667648
aF1.1342877319659292
aF0.0
aF-0.00989695316468345
aF0.04030521263089888
aF0.0
aF-0.01566289201339374
aF-0.0572790247536237
aF-0.029554910198602097
aF-0.04302198152810874
aF-0.016246112868166608
aF-0.03916623196240924
aF-0.0037016549732683925
aF-0.006596556059084983
aF-0.015291010737994132
aF0.27319366483372376
aF-0.054324016562720956
aF8.530807202860147e-05
aF0.0010287389059488916
aF1.3780057145890592
aF-0.01
aF-0.02771131582323256
aF0.8108832937412638
aF-0.01
aF0.02353638205641538
aF-0.0008495197648151263
aF-0.017205022986452465
aF-0.011792965414858952
aF-0.009996591467164835
aF-0.009000512419879257
aF-0.018766501172298666
aF-0.019962964318542466
aF4.060385141398948e-06
aF-0.01
aF-0.0067903902482029654
aF2.3868548541912182
aF1.8378643921669862
aF0.0038320440484674056
aF0.3554613160552329
aF-0.004882087191450405
aF0.004501506113224529
aF1.5325791078982722
aF-0.052922102068020636
aF-0.009999999500066454
aF-0.028414275356297314
aF-0.019999828483085832
aF0.03466684526123921
aF-0.019999962031042675
aF0.16644574164850953
aF0.0
aF-0.018561040780496904
aF-0.008350946800252532
aF0.05667352905968304
aF-0.007233113060918854
aF-0.008891059857145882
aF0.25196498386072846
aF-0.00999325953654789
aF0.006120732243477952
aF-0.009996489487703666
aF5.349873877236177e-12
aF-0.010985302651469131
aF0.0
aF-0.033301386967150653
aF-0.009006374365411022
aF0.0
aF0.0
aF-0.09982648458692245
aF2.493254962532274
aF0.38655576720754176
aF-0.009999999999876939
aF1.0630073109621012
aF-0.008506920072552656
aF0.00666667010058252
aF0.021009108668840613
aF-0.009354130886205812
aF0.2268876024185169
aF0.4029943440055534
aF0.018123060875109988
aF-0.019467040255183886
aF-0.009869794192357988
aF-0.02134508787978465
aF5.349873877236177e-12
aF-0.008463920063977295
aF-0.01
aF-0.019999999999876932
aF-0.028486238405847703
aF0.12427341031533892
aF0.08232180371611407
aF0.19657399197449946
aF-0.003372729851638443
aF0.0
aF0.0014048082641937867
aF0.5956865543379869
aF-0.00498230924954427
aF0.1686502805650966
aF-0.0016658987063254624
aF-0.007979188381150363
aF-0.015591609702064356
aF-0.022351702156596338
aF0.40101910234972904
aF0.0
aF-0.002580588221842597
aF-0.01
aF-0.03733721791945531
aF-0.004999999954335419
aF0.46427675675791036
aF-0.03354967833355925
aF-0.012881758784637997
aF0.03021143814247984
aF-0.04848522577981793
aF-0.009999281561707485
aF0.0
aF-0.014303799765706605
aF-0.03317449366340999
aF-0.00999971625166133
aF-0.029246248802302796
aF-0.005795075297900616
aF-0.019997899356994506
aF0.10240759144732403
aF-0.005790020280958478
aF-0.009956349416790838
aF-0.00261008572249955
aF6.217248937900877e-17
aF-0.01333097692816853
aF6.217248937900877e-17
aF-0.00999999998449848
aF-0.03958866753452423
aF-0.006603035192316586
aF-0.08434734635624921
aF-0.0931447799979578
aF0.02280076724830284
aF0.0
aF-0.04206425022284908
aF0.0012487500261318355
aF0.9069920713607664
aF-0.019656457550812016
aF-0.03800229036457589
aF-0.009999999999992331
aF-0.015429150731618387
aF-0.01
aF0.0
aF0.0
aF-0.009082780496983143
aF-0.009923552851241026
aF0.0
aF-0.013330986931690748
aF-0.008543566352900222
aF-0.019958927615320306
aF-0.009733221929296456
aF-0.00999945621098935
aF2.196786472916021
aF-0.009981871662129074
aF0.0026183728569989582
aF-0.009354130886205812
aF-0.05587390308166114
aF-0.019965580329789474
aF-0.00999325953654789
aF-0.012716414444541187
aF-0.009782806131565114
aF-0.004285248699426128
aF0.0
aF-0.009997855613171932
aF0.0
aF-0.009998965059896175
aF-0.009609531266259585
aF-0.011757543546075703
aF4.640732242933154e-16
aF-0.01
aF-0.022578537068848888
aF-0.009999992793988242
aF-0.050617481327752706
aF0.00826255928671083
aF0.09365425122827366
aF0.0
aF0.009326320446410418
aF-0.03215294209519927
aF-0.07779703589768752
aF-0.5040899635798104
aF-0.006336626197895391
aF0.023186860464147335
aF-0.014261868256063282
aF-0.026385200702849138
aF-0.03236462475967764
aF0.021894536686473204
aF-0.012468959058449868
aF0.08084913436260698
aF-0.008162922422122475
aF-0.01072822472433604
aF-1.592765745710113e-05
aF6.344745237384375e-06
aF2.295580535238706e-07
aF0.0
aF0.04580997994697598
aF-0.01802819732628385
aF0.0019944500137806555
aF-0.015039084486730917
aF0.21879087409799766
aF-0.026825247397095964
aF-0.03607029705222013
aF0.0
aF0.026030887587641126
aF-0.016079533384516002
aF0.015733910316623877
aF0.008086979858671656
aF0.07738618513663639
aF-0.01903387679341306
aF-0.00836902597483538
aF-0.0036552155383982425
aF0.5436721955117486
aF-0.017323185203666505
aF-0.009445495661759331
aF0.09982974902926464
aF-0.01972765852120055
aF0.10053964099530054
aF1.108871774598875
aF-0.03689794070614019
aF0.10092956956630311
aF-0.009033876793413059
aF0.0559387567794379
aF-0.005006648946882927
aF-0.10863471944059645
aF-0.010905253848355981
aF0.005000001057830059
aF-0.00999982604156331
aF0.004144075487711228
aF-0.009955017071690598
aF0.0
aF-0.014935253697145975
aF-0.022147944069116146
aF0.5282663026679132
aF0.04334255383866761
aF-0.026472760407920123
aF-0.003779856646708119
aF-0.0016277289917409324
aF-0.01907122344050117
aF-0.03271934965430529
aF-0.00999982848308583
aF-0.014657671355066074
aF0.0018823736010014501
aF-0.00766927563637306
aF0.08975477051152372
aF0.004464216789256623
aF-0.028915998551362367
aF-0.014792733320845557
aF-0.04543485851929026
aF-0.03421170617223765
aF-0.009999999999997414
aF0.7707222765421946
aF0.0
aF-0.024778971757884773
aF0.017504595011727783
aF0.07233219795692572
aF-0.015073490643563035
aF-0.00999177898036933
aF0.007951009095570344
aF-0.004997515649633503
aF0.6411607648793962
aF0.0
aF0.2631258675492913
aF0.11069845557723662
aF-0.006248308394020602
aF-0.013502391966660024
aF1.7266364103987495
aF0.0
aF0.07176610452157477
aF0.1589121068728838
aF0.0037855762041462977
aF-0.0390248405798988
aF0.02058182197415828
aF0.11244186310782257
aF0.0020708928363105806
aF0.0
aF0.0033333313852178994
aF0.0005327511890195247
aF1.4509242958590103
aF-0.018720669604023972
aF-0.21709580205292645
aF-0.008580352023843866
aF-0.38700172499334773
aF-0.013458528452127968
aF0.0
aF0.01878439160388062
aF0.07690728910999842
aF0.057666696944419366
aF-0.01999999774852434
aF-0.017131511303142184
aF-0.03967622790214917
aF0.16082790136085434
aF-0.018936099358502337
aF0.02177742955602335
aF-0.016844840110157116
aF-0.024918327597594766
aF0.0019300421638471566
aF-0.0034551769540558945
aF0.0
aF0.0074850096092609186
aF0.43542745030731805
aF0.03750717915446482
aF-0.006388837040606053
aF-0.009409519937881448
aF0.4938999527840155
aF-0.03325102387577005
aF-0.06114452226084028
aF6.217248937900877e-17
aF-0.009999957566978815
aF-0.12832774085722543
aF0.29397654201558454
aF3.5022463414579583
aF1.6772927902925905
aF0.02448586258634485
aF3.7231587719226162
aF0.40273180964557526
aF0.6687501419634148
aF-0.04453058126982203
aF2.148565080930424
aF0.3050887607221142
aF-0.09043370701738672
aF0.05747275424104017
aF0.06343717505855481
aF0.007500000000000264
aF-0.007847896647422458
aF0.5236002648905167
aF4.29822315392148
aF3.978975554691497
aF1.6638685822701185
aF0.009647528269296208
aF-0.01958457680841794
aF-0.01653947094480693
aF-0.009998964081487514
aF-0.009960814553612779
aF4.10238933037944
aF0.5579152141885134
aF-0.009856508151272045
aF0.004452906549707817
aF1.3568080554759999e-06
aF0.03566812788870077
aF-0.009555669913094048
aF-0.012296120748129698
aF-0.039999962612057786
aF0.5238583729154238
aF-0.014978655434152102
aF3.742758277071794
aF-0.05899436045353686
aF1.3568080554759999e-06
aF2.1892016072275284
aF0.04056446259990054
aF0.003847669788637892
aF0.07690500610986244
aF-0.009993716966805543
aF4.3615850592297525
aF1.6526128676603102
aF4.226371120824903
aF0.012077548813021673
aF-0.029999950068950867
aF0.550843396336122
aF0.0665817335359008
aF0.06703561077596078
aF0.006076051676288771
aF-0.03271258472099311
aF-0.04994512883415658
aF0.6065344934439175
aF1.3734500972459904
aF-0.03995335301377137
aF-0.04453058126982203
aF4.358254205866388
aF-0.019851328517251698
aF-0.006955901317102514
aF0.041992869120465716
aF0.020021549357329166
aF0.05381965732788802
aF0.2607137854017424
aF-0.09948941811742834
aF-0.015652231971286838
aF-0.047043337808246065
aF-0.11113892026903628
aF-0.009732611928748438
aF-0.009999756136643115
aF0.6435126845452855
aF0.1531977809004143
aF0.16114935334030828
aF4.268093331184247
aF3.5019880625972806
aF0.11961744503015426
aF-0.03134477892865492
aF0.004452906549707817
aF-0.03409892342388045
aF1.500496382339117
aF2.971912001388572
aF2.2646887505572297
aF-0.0981128889596127
aF-0.01653947094480693
aF0.0631109883969863
aF-0.009927656658175944
aF2.834818555107769
aF0.015000851644992463
aF0.211123226504714
aF0.0031585396176309613
aF0.5836169917917869
aF-0.04641745287518963
aF3.1593156315629938
aF1.2867417238370658
aF0.2278886951778821
aF-0.01460062074364055
aF-0.014688991715743366
aF0.5609534517429822
aF0.03300408723424501
aF3.7232822311576816
aF-0.04357227880779729
aF-0.009555669913094048
aF1.050604233741354
aF0.07727852765037788
aF0.0050030680702776035
aF3.7583055614941046
aF-0.04453058126982203
aF2.7974878278363504
aF0.025320957335651036
aF4.182804595316886
aF4.067503714735348
aF1.2811383413577764
aF0.6299558592448006
aF0.17941729953423427
aF-0.007312247847640413
aF-0.017520708909415154
aF3.6277998276399104
aF-0.019690923090520625
aF0.2212528891918395
aF0.9947804604910706
aF0.0010741361104926572
aF4.506926720294405
aF0.0
aF-0.029322590011792944
aF0.5623006551843762
aF-0.09463775633775774
aF3.7231587719226162
aF-0.05223440612449692
aF1.2089358673585053
aF-0.0559282514941464
aF3.7234056798449884
aF0.001368976546679117
aF-0.05226736492611548
aF0.6488039094283414
aF-0.06399113994632542
aF-0.04464911284039413
aF-0.008709700698052294
aF-0.003451927636706562
aF0.6679160552427897
aF0.06537712090778955
aF3.0617565609047935e-05
aF0.16114935334030828
aF-0.03791207063053695
aF-0.02574448949937885
aF1.3568080554759999e-06
aF0.2201447120013631
aF-0.013839187230906002
aF-0.04453058126982203
aF4.261455502355946
aF0.16288658545979606
aF0.15037250833187904
aF0.0
aF0.03261077808715096
aF0.03516357910316781
aF0.10035537919922963
aF-0.0004761991911547347
aF0.010000678404027737
aF-0.034530606272192586
aF3.5019880625972806
aF0.0
aF2.7435657949472815e-05
aF0.17532517531987354
aF0.018197173561498598
aF2.8806219151339136
aF0.005278271733769314
aF4.374635639615654
aF0.139061848329632
aF0.00755870344333078
aF0.031270062760729994
aF0.07510880068144087
aF1.1744853489038463
aF3.7234056798449884
aF-0.01509988152200557
aF0.2286014126605543
aF3.04113883411211
aF3.7232822311576816
aF0.0116254497886379
aF-0.002794162931933458
aF0.17335724602346367
aF0.016654244231109346
aF-0.028331064591710375
aF-0.00848192016428475
aF0.0
aF-0.014688991715743366
aF4.168605846094169
aF0.33535321364913645
aF0.5953699573361092
aF2.5685819524946543
aF-0.03306032224602645
aF-0.009999999999876939
aF1.0254801999330945
aF1.279664340013355
aF2.7710718468696647
aF0.06831203890723474
aF-0.06058925819183368
aF-0.029851658572943952
aF0.0
aF2.771203799157986
aF-0.0738825750217628
aF0.030668127888700766
aF4.174582065460535
aF2.2087106197464483
aF2.151721436976213
aF0.004714201700687443
aF-0.1045181726072059
aF0.17776834667202795
aF4.228083387745459
aF4.034891449083901
aF-0.009052945415553699
aF9.444233883826315e-10
aF-0.009248299058388155
aF-0.009999504638281476
aF0.08465882728396931
aF0.04893611259716246
aF0.045030018243873406
aF0.5269354840510424
aF0.00015968892032980575
aF-0.002569318695241335
aF-0.017310890889725837
aF3.7466432538807517
aF-0.053657456122842555
aF-0.001701802235115117
aF0.6818726094175874
aF-0.04123135719286002
aF0.0025605379478166974
aF1.282710954061085
aF1.6320890646511627e-07
aF-0.004079525775549817
aF0.02108191194602433
aF-0.018745042209119035
aF4.216993929199243
aF0.42188657752350806
aF1.5159803005532386
aF2.8931236456994363
aF0.34303464820269447
aF0.1604506185738726
aF0.031093496420569824
aF-0.1532175609661691
aF-0.00143557708572826
aF-0.019999998918652038
aF4.226874380347009
aF-0.07730429720245632
aF2.8186871753675304
aF2.493980899772551
aF0.5226691193076526
aF0.07232474019334344
aF0.0
aF-0.03310708136682672
aF-0.06702137588132949
aF2.1795323203882098
aF1.8396325374796552
aF0.0
aF3.7583055614941046
aF0.061086921571809734
aF-0.009951259909491368
aF0.06373735357646133
aF-0.006563868834373504
aF-0.018839187230885124
aF-0.07160970530250431
aF-0.07889296056588463
aF0.058226607559691924
aF4.19243444347243
aF0.017731325992874965
aF0.036715924094767614
aF-0.0329742645785168
aF0.04509763967342413
aF-0.056771270471105285
aF-0.049178650912382375
aF3.7583055614941046
aF0.5682311110267869
aF4.105582083702153e-07
aF0.032263642586344836
aF-0.01011536914440864
aF0.022623629157761522
aF0.5031112369923717
aF0.03281786631250462
aF0.18241510626347465
aF0.20344075349252735
aF4.193347739603255
aF-0.06899035576125362
aF-0.03895392960997358
aF0.01740145571906046
aF0.7779520384664732
aF-0.009997556491087502
aF0.0
aF0.026851062348581714
aF3.7231987590131403
aF0.0025
aF-0.01653947094480693
aF0.9979188850472219
aF-0.03715472577096945
aF-0.022857776369675786
aF-0.07137356410059167
aF-0.01993111439871413
aF-0.017697689201322347
aF0.15968931307144352
aF1.5025755688399542
aF2.254127141208786
aF-0.007197314121480853
aF3.156629808771476
aF0.013839016478701494
aF-0.001766084907117091
aF0.02259062878616371
aF0.09884487408024448
aF0.056479705664148935
aF-0.03995335301377137
aF3.723529139080054
aF1.3568080554759999e-06
aF-0.030772292006843612
aF0.648447191473632
aF3.7583055614941046
aF0.14778469152964954
aF1.4939057679819925
aF-0.009999999999295624
aF0.15968931307144352
aF0.49038385473982843
aF0.0584510842452257
aF0.19590880874115257
aF0.40610604031162045
aF-0.02804710391661088
aF-0.03985165857290571
aF0.21457733238813304
aF0.8474142872669898
aF0.037513804449457094
aF-0.22182798147611926
aF4.211733037602257
aF0.005279091706615962
aF0.0031585396176309613
aF0.0050030680702776035
aF-0.0099999867541415
aF-0.038690135806658574
aF-0.00997985690182203
aF1.80361403279609
aF0.017593572553726282
aF0.16114935334030828
aF0.003847669788637892
aF-0.01
aF4.027647990720244
aF0.1243126896761048
aF1.6059775731491755e-12
aF0.0
aF3.9051308292879887
aF-0.0010212369755257728
aF4.358562627285673
aF1.6847468817883413
aF-0.009991826828889059
aF0.0
aF-0.03917927105552013
aF0.03950001288579433
aF-0.013321519564725617
aF-0.08646762338250304
aF0.010742036759110417
aF0.1531977809004143
aF0.5883233521620611
aF-0.07660007381678627
aF-0.04994513060450744
aF0.3731945525335661
aF3.0877689228925274
aF0.5792544768627105
aF0.0
aF0.0050030680702776035
aF-0.010283817822683752
aF0.0031585396176309613
aF0.08629077876322507
aF4.358562627285673
aF-0.007312247847640413
aF0.010000678404027737
aF0.09290172169248412
aF0.025774352280463386
aF1.1466227051597078
aF-0.07932729027941586
aF0.6380655695260186
aF0.18248875036096848
aF-0.06314692326445694
aF0.010000678404027737
aF0.5233263210334052
aF1.3789665846945103
aF0.010000678404027737
aF3.7231587719226162
aF-0.01873756994204659
aF2.7711718641005865
aF0.16114699829407325
aF-0.009999999999943793
aF1.0085209324743045
aF0.4917996971579481
aF1.4495562616641453
aF0.5230543584584155
aF0.19895953748542275
aF-0.006888814746403453
aF0.1531977809004143
aF0.0177582973253672
aF1.0589499041846906
aF0.043992531742898196
aF0.003411949134538526
aF-0.0806005329556464
aF-0.007018378863362856
aF0.4528000756860507
aF-0.016521363921927927
aF0.0
aF0.0009585889439793112
aF0.36320432406238945
aF-0.009999756136643117
aF-0.014995042321561104
aF0.005000000000000001
aF-0.019999756136643117
aF-0.04767837446177505
aF0.0
aF0.0
aF0.0
aF6.096583921900989e-08
aF0.0
aF-0.021917175742063536
aF-0.003333238712295658
aF-0.0049998780683191595
aF-0.00499993903416078
aF0.0
aF0.003458089957198918
aF0.3915558642729314
aF-0.013834351484129467
aF-0.010649492366734388
aF0.010225741090352661
aF0.005000000000000001
aF0.0050006784039786315
aF1.3568079572634506e-06
aF0.0
aF3.4648192944852774e-07
aF0.6055906862860009
aF0.005389985478237814
aF4.218254690493628
aF-0.05513944930294974
aF3.723282220003428
aF-0.03767861832513193
aF-0.006531714167186358
aF-0.009999810428485398
aF3.5009438963318256
aF-0.011307407461024228
aF0.16114935334030828
aF0.008700921506598822
aF2.4939991479922914
aF1.3568079572634506e-06
aF0.7794960424287994
aF-0.009374440255532268
aF-0.01613855972216271
aF0.006786891316982976
aF0.07953570916987905
aF-0.018009303743608186
aF0.0
aF-0.018834351484127067
aF3.5023833206092565
aF-0.018839187230906003
aF0.02825166647805439
aF0.10716380247536708
aF-0.018839187230885124
aF-0.053657456122842555
aF3.5019880625972806
aF3.6306217769954683e-08
aF0.5350856797105739
aF0.33988259259166365
aF4.358562627285673
aF-0.018686684251928
aF0.5237369578737846
aF-0.02502255447649894
aF-0.019321988866962368
aF0.04748286540757351
aF0.0036348744403690296
aF-0.03917854089844508
aF-0.006017935319970174
aF-0.01999996261239291
aF-0.05532807049564774
aF0.021354676322758764
aF0.8115469509414829
aF0.6164504586415889
aF-0.019940521298882942
aF-0.1427043621974236
aF-0.018686684251928
aF0.071775297687203
aF0.9235653809751527
aF0.15968931307144352
aF0.26296274339939174
aF-0.007499939034160781
aF-0.013567561974990636
aF0.09448094439359248
aF0.0
aF3.198992046541765
aF4.22896710531069
aF-0.020510839000790298
aF0.07976099628854462
aF-0.012515367543609757
aF2.586819647376615e-15
aF-0.011340378779393756
aF4.144822538520998e-09
aF0.15836605774990933
aF-0.09298558886184635
aF0.11992419804242808
aF-0.019999993207872352
aF0.0
aF0.0031585396176309613
aF-0.009999756136643117
aF-0.00999999959094887
aF-0.01589086310783462
aF-0.0383210153677835
aF0.0
aF0.3052740473490444
aF0.0
aF3.59226867310788
aF0.00391112256578745
aF-0.009999999999998697
aF-0.016746726661857336
aF-0.009999756136643117
aF-0.012751669522798537
aF2.5561615907311515
aF2.7435657949472815e-05
aF2.485725694759637
aF1.794771564700426e-10
aF-0.014664304319774234
aF0.6379851873082996
aF-0.09261344833480427
aF-0.05492177421092028
aF-0.015241301859709344
aF0.0
aF0.0
aF-0.029990084643127003
aF0.010225741090352661
aF0.0027257410903526584
aF0.0
aF0.006786891316982976
aF0.0
aF-0.0032085800428010825
aF0.0
asb.