(ilrsgd
LogisticRegressionSGD
p0
(dp1
S'mu'
p2
F0.1
sS'eta'
p3
F0.01
sS'weight'
p4
(lp5
F0.0
aF-0.009313336920879513
aF-0.009999999999999653
aF0.0
aF0.0
aF0.0
aF-0.059028940934084013
aF-0.006738291335642928
aF0.03270402692647855
aF-0.019951753507181556
aF0.00023189565014429593
aF-0.047580321431141104
aF-0.010984532200489242
aF-0.009999999999999653
aF-0.0270081049317348
aF3.0891437126090435e-08
aF-0.029824978539655815
aF-0.019505491808903846
aF-0.008781375946211995
aF-0.0026306833879868917
aF2.1549428907974288e-14
aF-0.044328791207573756
aF0.0
aF-0.006531553254494379
aF-0.004884460398882617
aF-0.02634089924325419
aF-0.009991247246905671
aF-0.009828560081192678
aF-0.014084040904983644
aF-0.006118279761218851
aF-0.03793166521449525
aF4.8740510559787056e-06
aF-0.004867996834189703
aF-0.01796060993789026
aF-0.0790262530804128
aF-0.010760692188934756
aF-0.016733782171156935
aF-0.004317317500043117
aF0.0
aF0.005000000131188101
aF-0.009999961655477771
aF-0.009999998882258774
aF-0.027218797176800917
aF-0.03586039142122391
aF-0.009150555400871977
aF0.001535955863627957
aF-0.009994792804600612
aF-0.009999957603157137
aF-0.009410797017864321
aF-0.008966131674927267
aF-0.009089682726879673
aF0.0042681012742168305
aF-0.006518352132097344
aF-0.04372329517017012
aF-0.02093324292099552
aF-0.044990548096703026
aF-0.018577709736568228
aF-0.07758394851307995
aF-0.05618562380424392
aF4.77963604404108e-06
aF-0.013193329480518599
aF0.10291052295626633
aF-0.044476349858159785
aF-0.09290139050653778
aF-0.009062962031793634
aF0.0
aF-0.009786804869280408
aF-0.009985947453352585
aF-0.007749414098505768
aF5.058385927723119e-06
aF-0.030958193531424687
aF-0.05695705459534306
aF-0.009722671412797581
aF-0.01998999927474787
aF-0.014531487316839115
aF3.974431197855122e-06
aF0.1046475969528215
aF-0.009836106349746274
aF0.00660066246742772
aF-0.004841083218668508
aF0.0005609987838168729
aF0.0
aF0.0
aF-0.016937216026507492
aF0.0
aF0.0
aF-0.027467979823708473
aF-0.027928498287281382
aF-0.009925893749014468
aF-0.00995755045465847
aF-0.00712061165328902
aF0.02203813263920578
aF-0.007401561771720471
aF0.0
aF-0.07352349819926218
aF-0.06486406488406214
aF-0.006925194048467802
aF-0.014227738347082757
aF-0.007089561274248947
aF0.0009761470035698581
aF-0.01741365169484067
aF-0.019720392046969768
aF-0.01643088999287529
aF-0.044243014867552805
aF0.0
aF-0.009206523761223604
aF-0.029414972637507197
aF-0.15961542697482559
aF-0.009997962105485172
aF-0.025353550385264836
aF-0.015009541490002025
aF-0.009641947819102187
aF-0.006118496574804894
aF-0.02620383709927701
aF0.035838578970101995
aF0.0001216898000747313
aF-0.00811537521212281
aF-0.09722138922887782
aF-0.009095418869020386
aF-0.01952359573239217
aF-0.040833216131435
aF-0.03257582364051822
aF-0.09759928348771796
aF-0.09057748203812377
aF-0.00999999935584034
aF-0.017482314508223486
aF-0.009827307987866366
aF-0.009998802518933644
aF-0.006676828260147148
aF0.0
aF0.0
aF0.00011167727858319766
aF-0.006925194048467802
aF-0.0698204970332423
aF0.0
aF-0.019988781454643563
aF-0.05678582573157272
aF-0.00706649306103108
aF-0.009992120296268512
aF-0.00430281163598892
aF-0.01941685396525006
aF-0.09524501439029259
aF-0.015028683981325768
aF-0.04515555234579099
aF0.0
aF-0.009158020337844143
aF-0.07375908588005818
aF-0.010944829501237041
aF-0.11336990050850704
aF0.0
aF-0.005370063203126446
aF-0.014453951887971498
aF-0.00833098513620794
aF-0.009987337104043308
aF0.0
aF-0.026656236812755342
aF-0.019318167428793588
aF-0.039376608440471444
aF0.004214771567970272
aF-0.04668654611886205
aF-0.018460367485605707
aF-0.00504193428619343
aF-0.009998693698580106
aF-0.036854367161950924
aF-0.009488751305134564
aF-0.01971660826871089
aF-0.0591615833280389
aF-0.00999989722276432
aF-0.0054228709623085816
aF-0.009998395590638079
aF-0.020758840243460357
aF-0.008639306529709493
aF-0.07754414293630234
aF-0.0260824206850789
aF-0.009245065844223391
aF-0.009954192439582187
aF-0.02666548279093131
aF0.0
aF-0.09567641306655655
aF-0.025779893636746504
aF0.0
aF-0.011435513408840834
aF-0.025019037304374547
aF0.0005609987838168729
aF-0.02871507459760731
aF0.08684647523239647
aF-0.03229117314510014
aF-0.0063774746375831
aF-0.009901539734785123
aF-0.09313038555130247
aF-0.007006779306796041
aF-0.019989999999465595
aF-0.24546589995896442
aF-0.0050805468733599556
aF-0.10236395389685636
aF-0.005047324715374992
aF-0.03513897960769734
aF-0.016207867725792094
aF0.0
aF0.08010553498811288
aF-0.0399125564582537
aF-0.013639359385923441
aF-0.0089785163106223
aF0.026519315822992044
aF0.0
aF-0.00879239475045763
aF-0.0073498467544920384
aF-0.018566444279741398
aF-0.00999996438000337
aF-0.009996403502669116
aF-0.006885595848372055
aF-0.006772157666764032
aF-0.007949429236444849
aF-0.009999998882258774
aF-0.03298009173252734
aF-0.004278379471035082
aF0.0014059497747334526
aF0.0
aF-0.019971599994153433
aF-0.09122165373290217
aF-0.04922904396785206
aF-0.10044599813517868
aF-0.021824356500370956
aF-0.009085931251103031
aF0.04427487858516211
aF-0.017539161019294078
aF-0.009989765284700223
aF-0.025156191167118397
aF-0.09922205245860848
aF-0.029882882944916922
aF-0.0070817125311428576
aF-0.018459365480663754
aF-0.009890514993782793
aF-0.007749414098505768
aF-0.002340993288725768
aF3.974431197855122e-06
aF-0.0073498467544920384
aF-0.008651209719313447
aF-0.007739364826458484
aF-0.005610666298311129
aF0.023082361690190126
aF-0.028828919336775137
aF-0.006726205775155531
aF-0.027974577737736827
aF-0.003103651689460014
aF-0.029596500122812362
aF0.00243829820971014
aF-0.18156013079878602
aF-0.006622014955746662
aF-0.09429399263765478
aF-0.009902817618537247
aF-0.015173050162756892
aF-0.009738510752555269
aF0.015220125460976362
aF0.0
aF-0.019927963508706993
aF7.386442915107039e-05
aF-0.07653827452169362
aF-0.0014944717653627784
aF-0.004966580566661966
aF-0.03427820647836853
aF-0.009981685194559541
aF-0.009999999955628473
aF0.0
aF-0.002139737043794394
aF-0.06425282280876107
aF-0.019989836797247872
aF-0.009781325062422361
aF-0.01983515778434095
aF-0.007285384256087815
aF-0.006269929793060104
aF-0.08664988272871774
aF-0.004967226462233867
aF0.0
aF-0.018166715873345743
aF-0.007909655584286128
aF-0.037325554683184874
aF0.002779324548249431
aF-0.009202686746163327
aF-0.00998385952051752
aF-0.005787146590556052
aF-0.00996613816561035
aF-0.009237320998567243
aF-0.10582091074637819
aF0.0
aF-0.05421959967345834
aF-0.00699352099299152
aF-0.014206049918776881
aF-0.009999999999897494
aF-0.017470075729900017
aF-0.0047775526075177
aF-0.006646144169643019
aF0.0022476755142129537
aF0.000579360617951099
aF-0.024186811846812345
aF-0.00999998515061879
aF-0.0377049479359452
aF0.0
aF-0.009976965444718952
aF-0.007965010103078193
aF-0.04328053900506942
aF-0.009856957251617605
aF0.0
aF-0.009667413854803837
aF-0.012056129878144608
aF0.0013955487037493528
aF0.0
aF-0.04181201417207149
aF0.0
aF0.0
aF4.77963604404108e-06
aF0.0003899381751979647
aF-0.006654230723120133
aF-0.009921836345612016
aF-0.00890449970290412
aF-0.03207595852712548
aF0.03229406166250787
aF-0.014704373210819289
aF-0.04109828276684014
aF-0.017291083316507805
aF-0.007749414098505768
aF-0.009999965614541442
aF-0.039112782724810696
aF-0.014611865687885327
aF-0.009999058525464012
aF-0.08322056209161788
aF-0.015218962885110609
aF-0.025278725427195184
aF-0.01996694101030784
aF0.0
aF-0.07248537627365136
aF-0.009999999999999653
aF-0.008922137343921832
aF-0.007560565628908034
aF-0.009642229877762627
aF-0.003320205014025678
aF-0.25256251761299475
aF-0.025633108377611145
aF-0.023210265104116178
aF-0.009985131011336315
aF-0.00999782375668614
aF-0.0188132969148702
aF-0.007656924616735988
aF-0.007027357913978289
aF0.0015052709867617409
aF-0.01982784092313722
aF-0.022122037059678728
aF-0.012184346989553525
aF0.0034267111876415566
aF-0.06889393565595296
aF-0.045045927745750454
aF-0.1062628019584157
aF-0.1099507013781244
aF-0.009998105181275975
aF0.0
aF-0.02019965928816615
aF-0.006752318587292637
aF-0.17507756428401927
aF-0.019000680458634137
aF-0.005173856202418257
aF-0.008651209719313447
aF-0.01794510382317156
aF-0.008693012170714476
aF-0.0753096013053269
aF-0.009974820731757662
aF-0.00879239475045763
aF-0.006557943515714639
aF-0.009999494606135551
aF-0.07000657308094699
aF0.0
aF0.0006058139172237798
aF-0.19232714211946725
aF-0.03866376929598468
aF-0.018585824668270218
aF-0.019535135925360457
aF-0.009999999999936051
aF-0.026616625460867103
aF-0.009967016260239835
aF-0.01947459214708231
aF-0.009033873985991174
aF-0.010957082705694818
aF-0.005656908163933284
aF-0.01565379111622249
aF0.0
aF-0.03210190257329123
aF-0.01614598079969224
aF-0.017335795108069017
aF0.5338386229153811
aF-0.04270344768739773
aF-0.009494076493736642
aF-0.027827750531807006
aF-0.009993938027751288
aF-0.009993585217444863
aF0.0
aF-0.015232015372120463
aF-0.09025079302630172
aF0.016579011326726255
aF-0.0029379183245126627
aF-0.0406868162335937
aF-0.009738550651266845
aF-0.03785850481025176
aF-0.009642229877762627
aF-0.026942348443043967
aF-0.007560565628908034
aF9.18859910381542e-10
aF-0.059398042808476305
aF-0.013796016851535725
aF-0.006694030597738511
aF-0.050590647558482964
aF-0.009584244262956926
aF-0.009901539734785123
aF0.0
aF-0.04107169727436921
aF-0.009999999999991103
aF-0.017581980079361632
aF-0.009610451762874726
aF-0.02950369276554276
aF-0.03648477883727276
aF-0.0031587685084137835
aF-0.09532084270125774
aF-0.011544287276012607
aF-0.015256378061611557
aF-0.019682416122520748
aF-0.00879239475045763
aF0.0016511344895350443
aF0.00020662743113533666
aF-0.009854057313793069
aF0.0
aF-0.12324310111367058
aF-0.06266259441539349
aF-0.09057951829500205
aF-0.015434063401994009
aF-0.009964794669295476
aF-0.00699352099299152
aF-0.018448659517144826
aF0.0
aF-0.019970650408666517
aF-0.009455768043312765
aF-0.028794821328495278
aF-0.0923252984692048
aF-0.014793850136841813
aF-0.02723144395756466
aF-0.013523473900122936
aF-0.008062714711182233
aF-0.005344649943453392
aF-0.13659007002385012
aF-0.02511470016447056
aF-0.036439897611015216
aF-0.060515974587529546
aF0.0
aF-0.006436526188171303
aF-0.02486616539738286
aF-0.018828311231980106
aF-0.034534348078836534
aF-0.04764681137136731
aF-0.0022906974409601126
aF-0.0026412305652802866
aF-0.009988939473149527
aF-0.06112238361908937
aF0.0
aF-0.009873645625122253
aF0.01168886122434896
aF-0.008178709479420114
aF0.0
aF-0.026298054170867544
aF-0.009999999982892738
aF-0.01851091139132474
aF-0.028897408580064437
aF-0.07066818158482079
aF-0.02521744612495045
aF-0.006646144169643019
aF-0.019252096523787912
aF-0.006479929618792397
aF-0.02762884330988493
aF-0.013064259540663474
aF-0.006173180539741099
aF-0.0359895316582569
aF-0.01880086916778981
aF-0.01692582708663857
aF-0.02576630572675034
aF-0.009034089687737688
aF-0.006646144169643019
aF-0.007979618073715347
aF1.1842284542467052e-05
aF-0.03686025697930402
aF-0.016160054705589465
aF-0.009921863195796476
aF-0.09282764489397224
aF-0.014493981232340171
aF-0.02789306448212928
aF-0.012410538997202994
aF-0.01757017046030772
aF-0.01890077326759984
aF-0.009237320998567243
aF-0.018599481880688412
aF0.0
aF-0.007700807579940956
aF0.028955618502750885
aF0.0
aF-0.01761386833340426
aF-0.009069248692499955
aF-0.09208532840172545
aF-0.004850815743744297
aF0.01302425646318744
aF-0.053376966048729865
aF-0.03543699177808541
aF0.0084706779369689
aF-0.043479129931113226
aF0.03753660351501591
aF-0.029480765821520975
aF-0.009989913775721703
aF-0.008544802401566553
aF-0.055261339319541636
aF-0.009946389678262366
aF-0.01762704617791391
aF-0.0022772420008859945
aF-0.015109965297384781
aF-0.00879239475045763
aF-0.009988939473149527
aF-0.009981685194559541
aF-0.009968057161458863
aF-0.00625876928258778
aF-0.10916979364175955
aF-0.12184636168582144
aF-0.059333114017260914
aF-0.05191047011266203
aF-0.05569845844306825
aF-0.060453306431571596
aF0.0
aF-0.005082266319472958
aF-0.026627180336159077
aF-0.015343780322656556
aF-0.006879923467076301
aF-0.009932964755879093
aF-0.027495469383663814
aF0.08484421944886388
aF-0.02464548396190659
aF-0.038963330392929624
aF-0.01031094877886894
aF-0.009390909095423089
aF-0.0465194744716459
aF-0.028231643187081434
aF-0.0633873416876181
aF-0.009918542358866782
aF-0.009901539734785123
aF-0.014292035096539897
aF0.0
aF-0.027604155117952753
aF-0.009957003249494216
aF-0.02223483992890353
aF-0.007739364826458484
aF-0.020141336030904143
aF-0.004965887124117767
aF0.0
aF-0.009999999999387433
aF-0.013306875003355392
aF-0.05297522586790869
aF-0.03605378567253366
aF-0.009978392236875137
aF-0.009390182205410845
aF-0.05808835818854479
aF0.0
aF0.0
aF-0.08685116067014896
aF0.1934395975377602
aF-0.006921025271597726
aF-0.19493835609672114
aF-0.02387421245624168
aF-0.009995800015296189
aF-0.06824450853709635
aF-0.025162423619466953
aF-0.015269703339424652
aF-0.014253653728234127
aF-0.2610465109464854
aF-0.00879239475045763
aF-0.009988939473149527
aF-0.009750586594936493
aF-0.019837427796544613
aF-0.0026696350583677664
aF-0.02970997870812915
aF-0.09096560509568628
aF-0.033601989089211685
aF0.0
aF-0.029641840977060574
aF-0.009995279964333898
aF-0.032822503679331094
aF-0.020658871948931835
aF-0.006605322048217054
aF-0.052121125510481384
aF-0.008104732754222205
aF-0.0331236471356542
aF-0.010647341140554968
aF0.0
aF-0.0064263199561081265
aF-0.009999999996739116
aF-0.04286387025286859
aF-0.009998936658183077
aF-0.04421940655649248
aF0.24110636452662437
aF-0.009972534498067946
aF-0.013511118162199326
aF0.0
aF-0.031561845614941894
aF-0.009999859883950895
aF0.001326713335579626
aF-0.051165506291732665
aF-0.044161509535283916
aF-0.10236675053073029
aF0.04119344448335567
aF0.0
aF-0.01987835396239887
aF-0.028630839266060734
aF-0.009752513518501753
aF-0.09260605700069247
aF0.011307361917165915
aF-0.09755140347992661
aF-0.005354141256321625
aF-0.019793977556044055
aF-0.014862544417148491
aF-0.020966459119057985
aF-0.005095487940289891
aF-0.009985937414299918
aF-0.029265384373773566
aF-0.009924055035215236
aF-0.04650658799237728
aF-0.009626014623139343
aF0.0
aF0.13397999768832963
aF-0.007839391139704551
aF-0.009289262625408991
aF-0.08886505005312337
aF-0.00456908682234165
aF0.004405760572660027
aF-0.01706755882461175
aF-0.02869445102114343
aF-0.01508430450527491
aF-0.009040086062460546
aF0.0
aF-0.009554366246424457
aF0.00046120522379395235
aF-0.009730269158384097
aF-0.003392674794156326
aF0.002341393567886033
aF-0.02950661361613903
aF-0.003128767967628355
aF-0.007419627272604505
aF0.07983575969922331
aF-0.007179030908823357
aF-0.03446641484480811
aF-0.09976154908088977
aF-0.002807331143832641
aF-0.04517878708136848
aF-0.0033585678842261504
aF-0.01267596920767097
aF-0.021210685969795248
aF-0.004147665424408926
aF-0.00956370484849978
aF0.006591816889690866
aF-0.12990041619281767
aF0.0
aF-0.07584510192659291
aF-0.10345933541279469
aF-0.08179454513382074
aF-0.029972892563594093
aF0.0
aF-0.01604428961558969
aF-0.002176375649262104
aF-0.03360450474216405
aF-0.02494050867068394
aF-0.06440105928840112
aF-0.3530871879305615
aF0.0
aF1.1871786327377621e-06
aF0.0
aF-0.030783026144239427
aF-0.021689357635146126
aF0.00044502960037246344
aF-0.019366924346135947
aF-0.05043187581317707
aF0.0
aF-0.014859563716982613
aF-0.006557943515714639
aF0.0008326043540495553
aF-0.0467951264928351
aF9.136715000790385e-07
aF-0.009715263051259438
aF0.0
aF-0.12116061440291725
aF-0.057530584083788305
aF-0.20516210025591383
aF-0.06455748162713208
aF-0.003541009783850508
aF-0.007878347427223684
aF-0.009911097405058397
aF-0.02011648035833749
aF-0.028753700816024304
aF-0.1644527072122184
aF-0.853116634709124
aF-0.009999999998321752
aF-0.00903810871403229
aF-0.028960623394157482
aF0.0
aF-0.009899407984221833
aF-0.015478850291337509
aF0.0
aF0.0003879408540689211
aF-0.009974820731757662
aF-0.02429927112118499
aF-0.005574914554253168
aF-0.11578819072244685
aF3.958229389811052e-09
aF-0.0401439457436777
aF-0.03940853064245979
aF-0.009935440832434167
aF-0.16119269575929798
aF-0.017752115119034004
aF-0.01978232678879583
aF-0.01967840444347176
aF-0.019187286835703178
aF-0.0014944717653627784
aF0.004403554385145372
aF-0.004681379510952164
aF-0.00987620386937951
aF-0.0029259579556098576
aF-0.0027924053411405208
aF-0.12657828360702494
aF-0.008457469017427178
aF0.012535633524226323
aF-0.0100649907362197
aF0.00433020009703019
aF-0.017557314109514388
aF-0.009999999996002104
aF-0.0037769277179115377
aF-0.008173534585431482
aF-0.016516000711002395
aF-0.01628192492917527
aF-0.10577696137223465
aF-0.008033956215881738
aF-0.016373517740852113
aF-0.028290062937970067
aF-0.04014792818750904
aF-0.013537502703025934
aF-0.07231348143023884
aF-0.01694492537900301
aF-0.0472592162712749
aF-0.007762779200214016
aF-0.11000574265877677
aF0.660163427687106
aF0.0
aF-0.0058393831849969866
aF-0.024536962631898505
aF-0.039798338831611636
aF-0.008360783002439325
aF-0.02677093067329801
aF-0.12064882604533092
aF-0.03616353195286885
aF-0.009932059973773787
aF0.0
aF-0.006772157666764032
aF-0.02320073157974848
aF-0.13343037060861573
aF0.0160218036467576
aF-0.011941231992357923
aF5.058385927723119e-06
aF-0.013942748522765919
aF-0.026346682516030093
aF-0.025086501005884655
aF-0.009989122073490495
aF-0.00022299300553847755
aF-0.04534780542739534
aF-0.020635552934466332
aF0.003784305182212341
aF-0.008666823894420481
aF-0.24653797682541162
aF0.0038433539691262696
aF-0.019073958703761294
aF-0.009940348351374445
aF-0.13067919100114828
aF-0.10987943104167838
aF-0.029034309789615735
aF-0.007684446845307981
aF-0.06839638161905578
aF-0.0020904153463821044
aF-0.0076078118930272675
aF-0.05131713362884619
aF-0.03966525842267974
aF0.0
aF-0.044146240906043896
aF-0.03556870200392766
aF-0.006599217934258257
aF-0.11200969302109148
aF-0.5496503888458822
aF-0.00999997683177746
aF-0.08522268014823245
aF-0.23648694673954454
aF0.03604705593388465
aF-0.019941846287237275
aF-0.13094574205871384
aF1.9365039217835724e-05
aF0.0
aF-0.007249188906900279
aF-0.023294750559630574
aF0.0
aF0.0027510566469990828
aF-0.004266437651668763
aF-0.00914505777073344
aF-0.012574067920256175
aF-0.027662523186809913
aF-0.005575862939527663
aF-0.049728587190567046
aF-0.008854484962616052
aF-0.00827187735695263
aF-0.09733483724289614
aF-0.007560565628908034
aF-0.04946672574964207
aF-0.0156452045135338
aF-0.1369257603901794
aF-0.020730427020734018
aF-0.1647184202369519
aF-0.23271437146917504
aF-0.015225644226981465
aF0.0573966499596605
aF-0.05081605969190072
aF-0.0170890741238238
aF1.9776576836383342e-07
aF-0.01068243106858835
aF-0.02760971464774776
aF-0.007158821434332451
aF-0.008832384186570542
aF-0.0037911396123956644
aF-0.06494883669470196
aF-0.019685049053102165
aF-0.008828265713314066
aF-0.007265119772377014
aF-0.024003083507292473
aF-0.050972017239566327
aF-0.00999378855527078
aF-0.06816544546669252
aF-0.009974820731757662
aF-0.009986645538615856
aF-0.019591709709109652
aF-0.009971121648572757
aF-0.009856286105493075
aF-0.032572763953980365
aF-0.019322159069949267
aF-0.017210397624592026
aF-0.016503761183210293
aF-0.03460433624189099
aF-0.13690676930955376
aF-0.006091815196884482
aF-0.04913843322209854
aF-0.00882239418677345
aF-0.027127238193293893
aF-0.12572813935191246
aF-0.0029105706791695976
aF-0.13857718925487292
aF-0.026988194296164166
aF-0.0868486913932387
aF-0.018785413486120728
aF-0.014971451766327823
aF-0.016901694350268545
aF0.0818233003206907
aF-0.02845963018250627
aF-0.09795278230864424
aF-0.005376059866723904
aF-0.005706655489160042
aF0.39626781334143674
aF-0.08626185600982736
aF-0.01606319567937037
aF0.0
aF0.001258161251595471
aF-0.0027584685702614752
aF-0.059593388999720755
aF-0.009999999999999431
aF0.24759388561914664
aF-0.01517095305334098
aF6.939147810802737e-09
aF-0.02665534096848525
aF0.0
aF-0.012287641166179732
aF-0.009856286105493075
aF-0.20975751200288292
aF-0.03695700958338848
aF0.0
aF-0.01385624471282244
aF0.0
aF6.124674388652273e-08
aF-0.18019600998902444
aF-0.025795834423079117
aF-0.03287064684066306
aF-0.011176870839625017
aF-0.004836242132603123
aF-0.19276578759832197
aF-0.36648674094540207
aF0.031267042847723844
aF-0.009999954115120833
aF-0.2910412317976423
aF-0.20398025408681913
aF-0.03954354426265215
aF-0.00804200620890903
aF-0.021695286682080442
aF-0.17943919483438595
aF0.0
aF-0.009786176715266218
aF-0.009985131011336315
aF0.0
aF-0.030548685143108524
aF-0.008929309195387331
aF-0.03680351737465921
aF-0.005101681146469217
aF-0.006040217033845514
aF-0.03006442314216088
aF-0.006575789344325208
aF-0.011439426813603784
aF-0.01940431208700615
aF-0.005015659388787535
aF-0.004774627787605028
aF-0.009792710453331098
aF-0.008494550791140932
aF-0.009716434280499918
aF-0.016207522635095225
aF-0.018714690947159038
aF-0.07092263393655077
aF-0.009993789350339484
aF-0.027494870925926975
aF-0.006024630278377055
aF-0.010573014695992655
aF-0.06615090348208666
aF-0.02577342624112488
aF0.0
aF0.0
aF-0.0051084835943010715
aF0.00500000092718112
aF0.0019551980019736747
aF-0.015356923704918621
aF-0.009462121902192136
aF-0.027312329078386488
aF-0.11783527796616465
aF-0.009715263051259438
aF1.8344913131207453e-05
aF0.0
aF0.0046722124632254045
aF-0.0392451027767775
aF-0.005724104493497562
aF-0.05255095892912501
aF-0.08018933983852912
aF-0.0214367446810697
aF-0.013315202748528286
aF-0.018238785872906414
aF0.046497998202270054
aF0.02061441981089889
aF-0.031212154428553962
aF-0.04607270970337242
aF0.00023745354413521659
aF-0.008326895801383726
aF2.6237620298630307e-10
aF-0.005900359064864743
aF-0.015669394657448942
aF-0.009912626729523954
aF-0.009971631941814475
aF-0.011115773897403026
aF0.0
aF0.0018018664871952896
aF3.0891437126090435e-08
aF-0.005029367930538477
aF0.0
aF-0.015356923704918621
aF-0.005803711654781163
aF-0.008494550791140932
aF-0.01568547523442034
aF-0.17668447190846892
aF-0.009994531578495362
aF-0.07815969930350858
aF-0.016391476543677008
aF-0.04638122296194545
aF-0.026678089100081084
aF-0.017656177104131934
aF-0.009994246386840919
aF0.00013292358099800498
aF-0.009733153088141914
aF-0.014208895291452922
aF-0.01611599565307483
aF-0.006294689444739171
aF0.0
aF-0.223079323787987
aF-0.009995314801751722
aF-0.035021966432064455
aF-0.2331058687941434
aF-0.005196388880981191
aF-0.009076990340305654
aF-0.017793032301215317
aF-0.00991247557255699
aF-0.03535829718335262
aF-0.01862590320235758
aF0.027951087636159756
aF5.2682443515453816e-05
aF-0.009995115323752544
aF-0.029964690068529712
aF0.08296359182302335
aF2.4410960122251968e-05
aF-0.009949709887541132
aF-0.00998208458452093
aF-0.006152132944564898
aF0.0027123158590791363
aF-0.0032588431734730033
aF-0.0629245694205559
aF-0.005580030215779348
aF1.1871786327377621e-06
aF0.02154564757325715
aF-0.009999852270200926
aF-0.0571405632127088
aF0.0
aF-0.3316994135636687
aF-0.017152961146291043
aF-0.007091927521665582
aF-0.07914027854412807
aF-0.007130389764400142
aF-0.009349106823527636
aF-0.026111045366416393
aF-0.008853426410696521
aF0.21224957653688306
aF-0.0099447823640748
aF-0.009215818626528918
aF-0.0449052153704915
aF-0.006518352132097344
aF-0.004706173206924075
aF-0.05315007652784065
aF-0.05803566252059198
aF5.2682443515453816e-05
aF-0.1250046431168581
aF-0.0029538589110858575
aF-0.017840033444570837
aF0.07358684491913388
aF-0.04583186462978592
aF-0.008127749998404956
aF-0.021967058296930478
aF-0.0009111896324550508
aF0.0
aF-0.00625750444289856
aF-0.018719082729085953
aF-0.009985947453352585
aF0.0
aF0.0
aF-0.0069409048613969125
aF0.0
aF-0.021496792244802884
aF0.0
aF-0.05707276781682179
aF-0.018558986378633815
aF-0.009749392572758149
aF-0.05492035192000531
aF-0.01960600054848572
aF-0.038968724695382054
aF-0.005047113195638433
aF-0.008797487307600356
aF-0.008970163889478723
aF-0.009690980867447489
aF-0.017435835130641487
aF-0.01569244047555502
aF0.0
aF-0.06579072358313309
aF-0.009900549602657176
aF-0.009969759203993697
aF-0.03424823876189551
aF0.0027448412892501395
aF-0.009486061767646093
aF0.0
aF-0.007696117388090328
aF-0.0018107856426649732
aF-0.013187865638866984
aF-0.008521475935735632
aF-0.008290651456731397
aF-0.018756194990034076
aF-0.008015810861996547
aF0.0
aF-0.019808589152867723
aF0.0015037294846457184
aF-0.04514300926641415
aF-0.020247088092287598
aF-0.013751667024253648
aF-0.009347715734993652
aF0.0
aF-0.02473560189683988
aF-0.010821549935320843
aF-0.009030038401443695
aF-0.009202686746163327
aF-0.021669673622586625
aF0.00797619890021502
aF-0.010957082705694818
aF-0.2753175129067799
aF-0.019000680458634137
aF-0.019427233862837394
aF-0.009999993805642062
aF-0.026401341838045822
aF-0.014611865687885327
aF-0.00699352099299152
aF-0.015109965297384781
aF-0.01817203176472855
aF-1.1395743990268454
aF-0.35967072803208977
aF-0.00893212786045058
aF-0.0981634349352971
aF-0.007749414098505768
aF-0.0099447823640748
aF-0.011117913697715018
aF0.00660066246742772
aF-0.0047775526075177
aF0.0
aF-0.1250046431168581
aF-0.03424823876189551
aF-0.015855976527447583
aF-0.014835889247638713
aF-0.00795288387425253
aF-0.052161618104047444
aF-0.17449129015213227
aF-0.05097387427299862
aF0.0
aF-0.004187960178476071
aF-0.007498299452504147
aF-0.08618264341805612
aF-0.24542592987694395
aF-0.06446990115820771
aF-0.0043892754935921565
aF-0.029186207346191234
aF-0.01577644795639406
aF-0.006951042019642283
aF-0.08138126974076856
aF0.0
aF-0.029892840129533006
aF-0.02484022002895008
aF-0.02517541168577454
aF-0.06797685577058331
aF-0.039998665340216635
aF0.0015037294846457184
aF-0.006738291335642928
aF-0.11042396958650981
aF-0.12273828804890793
aF0.02724854827687275
aF0.0
aF-0.0269197467410279
aF-0.011590764679431403
aF-0.20986734547825692
aF-0.009690980867447489
aF-0.009978392236875137
aF0.0
aF-0.012541861892416671
aF-0.009193368925396208
aF0.0
aF0.0
aF-0.03512491079143093
aF-0.009914879143785062
aF-0.0011556565358975075
aF-0.0028286994582565083
aF-0.10028108496726823
aF-0.04969153913180808
aF0.0
aF-0.04759526840643306
aF-0.019720392046969768
aF-0.10600836515555434
aF-0.009999999996739116
aF-0.00997555696627502
aF-0.009971121648572757
aF0.0
aF0.015892516704432876
aF-0.05695705459534306
aF-0.0188132969148702
aF-0.09759928348771796
aF-0.15961542697482559
aF-0.09057748203812377
aF-0.07758394851307995
aF-0.028828919336775137
aF-0.029414972637507197
aF-0.10397179182147435
aF-0.05217295821222798
aF-0.05678582573157272
aF-0.01048968893998064
aF0.0
aF-0.008651209719313447
aF-0.008178709479420114
aF0.0
aF-0.009692861813250003
aF-0.007560565628908034
aF-0.01762704617791391
aF-0.008308191803583793
aF0.0
aF-0.08604512675408603
aF-0.007560565628908034
aF-0.009925893749014468
aF-0.025162423619466953
aF-0.006676828260147148
aF-0.029195970595666944
aF-0.005113542128523794
aF-0.044243014867552805
aF-0.008858685879686717
aF-0.00865256488188448
aF-0.024167404345402654
aF-0.028794821328495278
aF-0.009996501003954104
aF-0.006659742631692147
aF-0.04879505284662653
aF6.840181265843626e-10
aF0.0
aF0.00020662743113533666
aF-0.009730269158384097
aF-0.08604512675408603
aF0.0007882031100580389
aF-0.0031025138578910888
aF-0.030570887695107515
aF-0.05661572025285099
aF-0.028828919336775137
aF-0.013264693235133022
aF-0.009999957603157137
aF-0.00699352099299152
aF-0.15498566494346994
aF-0.01953430959736371
aF-0.027619705133991028
aF-0.009992256112438393
aF-0.009974820731757662
aF0.0021998203842532194
aF0.0
aF0.004078886003759342
aF-0.009999182695403355
aF-0.051569287905825996
aF-0.005707363961650161
aF-0.00945537421085164
aF-0.006668369177278914
aF0.0024678597610897847
aF-0.006242137265168892
aF-0.015368755840320408
aF-0.21368495976683144
aF-0.23648694673954454
aF-0.043278090329208325
aF-0.0055827562237923305
aF-0.0059244500534849165
aF-0.0331236471356542
aF-0.2730434200266168
aF0.0
aF0.0
aF-0.044459929048144955
aF-0.009989122073490495
aF-0.0199719626029706
aF-0.021999610326699025
aF-0.008968355508853419
aF-0.009069248692499955
aF-0.015980144282203776
aF-0.021570133077188327
aF-0.0021767758822729267
aF-0.0024920020725351572
aF-0.014866114750964679
aF-0.007888436772558466
aF-0.02788380516564124
aF-0.04327004035838951
aF-0.10203991540635984
aF0.0
aF0.004368227812227229
aF0.0
aF-0.026183190622796428
aF0.0
aF-0.008445004922593344
aF-0.00999973917603911
aF-0.007158821434332451
aF-0.03568034736141009
aF0.0
aF-0.011544287276012607
aF-0.006624900054738562
aF-0.029961658819900483
aF-0.12116061440291725
aF-0.006964028809936271
aF0.0
aF-0.021210685969795248
aF-0.019222562330534158
aF-0.09710497286906739
aF-0.11436973083299212
aF-0.09710497286906739
aF-0.12097968501474031
aF0.0024310214349692206
aF0.002430392904560497
aF-0.00999782375668614
aF-0.00995755045465847
aF-0.07883881713876345
aF-0.009994246386840919
aF-0.009558714922910123
aF-0.009997143422094571
aF-0.009993585217444863
aF-0.03263090589150386
aF-0.051569287905825996
aF-0.06425282280876107
aF0.0
aF-0.1369257603901794
aF-0.015270080488054324
aF-0.015896697709050077
aF-0.17449129015213227
aF0.0
aF-0.019927963508706993
aF0.00046120522379395235
aF0.0
aF-0.016835696782884994
aF-0.004485823693642053
aF-0.06406442665260213
aF-0.007986379832755634
aF-0.01606319567937037
aF-0.0099996475075237
aF0.0
aF-0.0069012326808607465
aF-0.03303523663719041
aF-0.02513881168131553
aF-0.013897384619786936
aF0.01229245637919521
aF-0.009999999994072832
aF-0.0199899997898999
aF-0.09290139050653778
aF-0.11408438621626431
aF-0.009999995903769597
aF-0.016510381120978388
aF-0.004900975040176961
aF-0.009391997894899926
aF-0.009610451762874726
aF-0.01085855652583929
aF-0.004841083218668508
aF-0.028081432853023613
aF-0.03795589007974036
aF-0.019980009999456715
aF-0.00456908682234165
aF-0.013064259540663474
aF-0.009127126758074967
aF-0.006659742631692147
aF0.0
aF-0.004986151458407077
aF0.003333407840041386
aF0.0
aF-0.009211658687791792
aF-0.06839638161905578
aF-0.029139383518568422
aF-0.009106146082006631
aF-0.028830332944731765
aF-0.006531553254494379
aF-0.01967840444347176
aF-0.0066222980750109545
aF0.0
aF-0.09532084270125774
aF-0.032822503679331094
aF-0.019259501843134255
aF0.00023166443851227822
aF0.0027123158590791363
aF0.00500000092718112
aF-0.005656908163933284
aF-0.3752233867256054
aF-0.016793850079772864
aF-0.009738510752555269
aF-0.008356122053308945
aF0.0024310214349692206
aF-0.0796580891859264
aF-0.009418456407529828
aF-0.006091815196884482
aF-0.017752115119034004
aF-0.05810191011147281
aF-0.022994940027982642
aF-0.0447142618521463
aF-0.029139383518568422
aF2.32746007854201e-05
aF0.004193469004700827
aF-0.12676229316922724
aF-0.024363412030873735
aF-0.009968773357221367
aF-0.0254037544152865
aF0.0
aF-0.028967617841525073
aF-0.038224679646417334
aF-0.023902158080841826
aF-0.01370612960027362
aF-0.03966525842267974
aF-0.012677277495257686
aF-0.026929105020403982
aF-0.018786707536549256
aF-0.038175165287141336
aF-0.008976093939461494
aF-0.009999362283312966
aF-0.5141992641344656
aF0.0001333980968112869
aF-0.009705519701581294
aF-0.007302103492644383
aF0.0
aF-0.07984292091581414
aF-0.01646123959379438
aF-0.03424118292322883
aF0.0010576951003386618
aF-0.03486533990308645
aF-0.03282620019224694
aF-0.012850347845469817
aF-0.017845340962838567
aF-0.008290651456731397
aF-0.04291132168900628
aF-0.054280344713684495
aF-0.038664986026873016
aF-0.009999953003206278
aF-0.03589997099623739
aF-0.009831662529430758
aF-0.04946092645650627
aF0.0006049350559448031
aF0.0
aF-0.022724840643372716
aF-0.008048322549805835
aF-0.05568072429483599
aF-0.13768310903530612
aF-0.03377550246693424
aF0.0024310839288390618
aF-0.03345813077359889
aF-0.0013399949349360784
aF-0.023782907326016303
aF0.003184148825568034
aF-0.0263145732864965
aF0.0
aF-0.009999965614541442
aF-0.009395135637670372
aF0.0
aF-0.0020892735323623166
aF-0.008172121208170563
aF-0.009202686746163327
aF0.0021004050255777097
aF-0.009876800837346536
aF-0.05154323310161893
aF-0.02301162317727395
aF-0.008326895801383726
aF-0.009999957603157137
aF-0.018460367485605707
aF-0.009999810376481908
aF-0.009993110206549234
aF-0.023902158080841826
aF-0.00891032803889591
aF0.0012389312429093439
aF0.0013185346799684295
aF-0.0958559249206773
aF-0.09863665878754563
aF0.10257536643167683
aF-0.042339730493957874
aF-0.014069677216198416
aF-0.041331822852376
aF-0.009971999912555266
aF-0.04427432083980495
aF-0.006137648382754738
aF-0.004998825156720197
aF0.0
aF-0.07732263728013672
aF-0.0823237100912454
aF-0.01163239506122934
aF-0.00364199891521895
aF-0.009547510540135348
aF-0.01586119686686292
aF-0.004075634575416907
aF-0.005292067895122692
aF-0.011934620137566777
aF-0.009876800837346536
aF-0.007198190407014247
aF-0.02393361433291994
aF-0.20986734547825692
aF-0.009489798642483631
aF-0.00970588068222113
aF0.12304753604710074
aF-0.017499298486657065
aF0.000860385097864107
aF-0.006951042019642283
aF-0.005851915911219715
aF-0.00766226215297942
aF-0.017072832213215247
aF-0.005697225691151465
aF0.0
aF-0.0026353819800829558
aF-0.27099509694834434
aF0.004899268979625142
aF-0.0024920020725351572
aF-0.042367693584686866
aF-0.018541702023926028
aF-0.009999999999959883
aF-0.028510300768161433
aF0.0
aF-0.009999965640357957
aF-0.003745678991420171
aF-0.01433004573289897
aF-0.09140919663817156
aF2.32746007854201e-05
aF-0.026480014197334235
aF0.026519766435838102
aF0.0
aF-0.008675556465790088
aF-0.021972880066961555
aF-0.009515743437271344
aF-0.00699352099299152
aF-0.028234567429801273
aF-0.009995314801751722
aF-0.0031662474556155796
aF-0.02975808359634284
aF-0.00890449970290412
aF-0.14383896094853205
aF-0.01995100988707623
aF-0.029370777520212013
aF7.890259473687711e-05
aF-0.026435617226628426
aF-0.052671729973879984
aF-0.1419671199241998
aF-0.19676534354596797
aF0.0
aF0.0
aF0.0
aF-0.07240288238964081
aF0.002237266069725027
aF-0.009547510540135348
aF-0.004841083218668508
aF-0.06879237105068683
aF-0.009978392236875137
aF-0.00795288387425253
aF-0.0068168073666219665
aF-0.009900549602657176
aF-0.00994740358890686
aF0.0
aF-0.05097553944878305
aF0.0
aF-0.01933851831043018
aF-0.0049999899966038245
aF-0.016013720971851223
aF-0.00979431629090046
aF-0.013264693235133022
aF-0.009898997915940767
aF-0.008376306967014503
aF-0.018710736258218303
aF-0.2180342181511015
aF-0.028261005547499107
aF0.0
aF-0.05735806266952099
aF1.1286152284673e-06
aF-0.0057363499685809975
aF-0.10322718824339544
aF-0.005851915911219715
aF0.002779324548249431
aF-0.02147576418341865
aF0.0
aF-0.008768872084395696
aF-0.00795288387425253
aF-0.011919181022848441
aF0.0006252436377016646
aF-0.17449129015213227
aF-0.017274282825703008
aF2.4394325025212103e-07
aF-0.06471074426925101
aF-0.017203907032633754
aF-0.015330410103333242
aF-0.006439306028569284
aF-0.009122950957784955
aF0.001041717749328156
aF-0.0061939500327018795
aF-0.01597322429805248
aF0.0001378987443451718
aF0.0
aF-0.009438836667789954
aF-0.01979501038351278
aF-0.009073418077695211
aF-0.006537495396073395
aF-0.07587694423940834
aF-0.036601145234544614
aF-0.009996756478793504
aF-0.03991759523860611
aF-0.07161975116840322
aF-0.025760167336971902
aF-0.06450611790877131
aF-0.026161654768211487
aF-0.02056342317222787
aF-0.00998385952051752
aF0.0037653277415074632
aF0.0
aF0.0
aF-0.013417113518070612
aF-0.05820834195562506
aF0.10611666977755806
aF-0.008918423777809575
aF-0.04044896519928286
aF-0.016706353924063357
aF-0.015984099714407743
aF-0.032264750719036825
aF-0.009999999999999284
aF-0.011960047647155686
aF-0.029195970595666944
aF-0.009996756478793504
aF-0.005697225691151465
aF-0.00801513444854154
aF-0.002964667619844743
aF-0.01998512020842745
aF-0.016093260265426568
aF-0.0066571958178792846
aF-0.010827061505514463
aF-0.0031372598106322383
aF0.0
aF-0.015400949674771576
aF-0.0981634349352971
aF-0.009999362283312966
aF-0.057872500869086
aF-0.15926248314484612
aF-0.009999999994072832
aF0.002822806457829605
aF-0.009999999999999653
aF-0.014528707066277624
aF0.0
aF-0.026786461373549602
aF-0.00795288387425253
aF-0.0063909368291373645
aF-0.010167066268837337
aF0.0
aF0.0
aF-0.03825880890216043
aF-0.09648211284008229
aF-0.015780219538238986
aF-0.016745971994793718
aF0.0035101937382082692
aF0.0
aF-0.008127749998404956
aF0.0
aF-0.35829960046748227
aF-0.009827307987866366
aF-0.026399455518107046
aF-0.13901390066957123
aF-0.009999999994072832
aF-0.004900975040176961
aF-0.009547510540135348
aF-0.03282620019224694
aF7.890259473687711e-05
aF-0.007728813222303752
aF-0.017107183729984966
aF-0.008356122053308945
aF-0.023813420219676303
aF-0.007918662720852227
aF-0.006982856562572186
aF0.0
aF-0.041569995108343284
aF-0.009987577390233848
aF-0.01953430959736371
aF-0.007918662720852227
aF0.01728615382582366
aF-0.01865829801840508
aF-0.053173543931611715
aF-0.04920115354386061
aF0.008174995484346567
aF-0.09601823163956423
aF-0.00554654104298191
aF-0.05517347035779682
aF-0.009999362283312966
aF3.9961913265990426e-05
aF-0.015013572877205932
aF-0.009999957603157137
aF-0.009481247523264815
aF0.0
aF-0.02775029523738368
aF-0.00728916101508981
aF-0.027057868857099876
aF-0.02456822036403818
aF-0.039798338831611636
aF-0.15585841671994322
aF-0.05392012402856116
aF-0.009751957507406282
aF-0.04780292405684949
aF-0.009221027305529502
aF-0.0162919627317784
aF-0.02672972304012259
aF-0.04254919416517339
aF-0.02409525768007647
aF-0.018337512174784874
aF-0.01792462875459993
aF0.00040125774324847543
aF0.016993722291749325
aF-0.004216019551487449
aF-0.014009294065907193
aF-0.007387047622218546
aF-0.11141991700418129
aF-0.009039077478922618
aF0.0
aF-0.0029259579556098576
aF-0.0067659996414483675
aF-0.007897511490027102
aF-0.02067332551637418
aF-0.07107389366340361
aF-0.005123029998591693
aF-0.06359485467946856
aF-0.004625957891919788
aF-0.032269798724043064
aF-0.12436578975191018
aF-0.005437160251022535
aF-0.02078777162512954
aF0.0
aF-0.009907192152859165
aF-0.0216781191798727
aF-0.04809982508960468
aF-0.009999859883950895
aF-0.019942690853200336
aF-0.0254037544152865
aF-0.016510381120978388
aF-0.009232313136827788
aF-0.01570377623476179
aF1.989117098588622e-08
aF-0.009999996506224585
aF-0.027513908867991335
aF-0.11475370790106847
aF-0.009999999994072832
aF-0.01728244531316392
aF-0.006520495795342648
aF-0.02482097676953112
aF-0.018944675054615886
aF-0.012642232177642609
aF0.0
aF3.0891437126090435e-08
aF3.899844186716628e-07
aF-0.009999362283312966
aF-0.01918062543594415
aF-0.045085029323852825
aF-0.005196388880981191
aF-0.025672134120273644
aF-0.009999996689686125
aF0.0
aF0.0
aF-0.27075704578763804
aF-0.014217181942855643
aF-0.026874249055506567
aF-0.006659742631692147
aF0.3115817869336473
aF-0.01621820684043595
aF0.0
aF-0.008308191803583793
aF-0.009746210593982521
aF-0.005113542128523794
aF-0.02597887703516192
aF0.0
aF-0.04326359046070946
aF-0.005
aF-0.0058661000226747405
aF-0.016036830283842365
aF-0.0058661000226747405
aF-0.009994447305635359
aF-0.011999046856644257
aF0.042825228179653
aF-0.07591705160440536
aF-0.019427233862837394
aF-0.05867085061787523
aF0.0
aF-0.0749415889267669
aF-0.009292212195737407
aF-0.0366964067882761
aF-0.005643367843270705
aF-0.0017716467134401984
aF-0.05661572025285099
aF-0.009197726798655497
aF-0.009713807839039967
aF0.0
aF0.0
aF-0.019989274588069837
aF0.0
aF-0.004621251473538924
aF-0.009674846459796415
aF-0.01289745344055213
aF-0.08367665234195881
aF-0.0261960776038987
aF-0.009999956944159864
aF-0.017179285908359702
aF-0.018786707536549256
aF-0.01358250460375456
aF-0.009968773357221367
aF-0.01998937498139196
aF-0.014866114750964679
aF-0.02629249156511986
aF0.0
aF-0.029707877311392673
aF-0.0183849912493158
aF-0.03595341151179379
aF-0.009908529166830772
aF-0.017327627919073864
aF-0.007559674561804745
aF-0.009932192741429539
aF-0.009999494606135551
aF0.0
aF-0.01048968893998064
aF-0.05695527212298931
aF2.150791254452944e-05
aF-0.0026190694346717776
aF-0.01577123356589868
aF-0.023769104588982272
aF-0.011948069419181626
aF-0.019668705181099894
aF-0.009972892851968696
aF-0.060110716453512625
aF-0.009211658687791792
aF-0.009641947819102187
aF-0.08750526775438883
aF0.00445852859796536
aF-0.042966726793350715
aF-0.00995755045465847
aF-0.005736003718613601
aF-0.009999993805642062
aF-0.009069248692499955
aF-0.028133505379458794
aF-0.022706634306365773
aF-0.01817203176472855
aF-0.014776465404432776
aF-0.00970588068222113
aF-0.00622833197005376
aF-0.009999999999959883
aF-0.009741775615916532
aF-0.00474270288120867
aF1.7726973125020696e-06
aF-0.026185031474974016
aF-0.006439306028569284
aF0.011055559615440478
aF0.01592959496415296
aF0.02135613991898476
aF-0.007308932465931237
aF-0.0037000771979223833
aF-0.00364199891521895
aF-0.0026413188285337444
aF-0.021799585183109108
aF-0.007161567631293932
aF-0.009913517995817083
aF-0.032933081761437416
aF-0.00998776439973261
aF-0.007302184106738271
aF-0.15498566494346994
aF-0.0054925080509241496
aF-0.23341723430543904
aF-0.027185184333138934
aF1.1871786327377621e-06
aF-0.04327004035838951
aF-0.18623994535513877
aF-0.1838784621504281
aF-0.008308191803583793
aF-0.0027614479179597514
aF-0.02849154062116687
aF-0.006537495396073395
aF0.00445852859796536
aF-0.01611599565307483
aF-0.009876800837346536
aF-0.03693961516816506
aF0.0
aF-0.0022637018845787847
aF-0.06807031712648058
aF-0.02662284322444174
aF-0.008970163889478723
aF-0.04605632619570653
aF-0.0047525536079606415
aF6.786840160654118e-05
aF-0.014522068663088398
aF0.003994729734191579
aF-0.03796879974441776
aF0.0
aF-0.06906634782604164
aF-0.019573882827393307
aF-0.25246770147161973
aF-0.006331883524121591
aF-0.028414675254413328
aF-0.009692861813250003
aF-0.0035535869570177915
aF-0.015971803757908194
aF-0.004121698612505996
aF-0.03151824427309397
aF-0.01324051214173324
aF-0.053296065239885546
aF-0.009824611461959672
aF-0.005375602383371558
aF-0.00999999969660026
aF-0.007878347427223684
aF-0.007298929249881836
aF-0.029932913691089108
aF0.0
aF-0.06178977742697657
aF-0.01613428914248652
aF-0.018079996616854395
aF-0.025518691789460327
aF-0.005338147020200433
aF0.0
aF-0.005579573002932768
aF-0.004951296465618911
aF-0.024884780223557574
aF-0.014328116711778928
aF-0.03895541684064186
aF-0.10997695547043931
aF-0.035030965614079534
aF-0.00890449970290412
aF-0.019205465118077365
aF-0.009706348001754446
aF-0.004992278215607909
aF0.0
aF0.0013185346799684295
aF-0.009999999955628473
aF-0.0581447282585236
aF-0.03507308325776609
aF-0.007402659641924833
aF-0.005851915911219715
aF-0.00903033694126109
aF-0.004900975040176961
aF-0.007739364826458484
aF-0.02503801073623497
aF-0.00872273866118673
aF-0.009876800837346536
aF-0.019954820049723453
aF-0.004999982820178979
aF-0.00999998515061879
aF0.00012256320189822146
aF0.0020195710255860467
aF0.00011167727858319766
aF-0.03774985158354865
aF0.00011317046220656546
aF-0.026929105020403982
aF-0.017899093555924367
aF0.0026796594868289006
aF-0.037343215258403256
aF-0.11051093767298181
aF-0.006964028809936271
aF-0.0013231439634060044
aF-0.007038542063364333
aF-0.004753595064802301
aF0.0
aF0.0
aF-0.024875277064539465
aF0.0
aF-0.004155694437776308
aF-0.0063978109400612835
aF-0.007161567631293932
aF2.8467161961032164e-12
aF-0.016178824925449992
aF0.0
aF-0.006092554913817997
aF-0.00977474525170017
aF-0.11489382621861727
aF-0.08813890950820262
aF-0.024167404345402654
aF0.0
aF-0.03482108953802602
aF-0.009706348001754446
aF-0.007878347427223684
aF-0.0449052153704915
aF-0.016527105679731445
aF-0.019695901079890964
aF-0.00862692199221697
aF-0.060087911025850205
aF-0.06406442665260213
aF-0.0058661000226747405
aF0.0007882031100580389
aF-0.0261960776038987
aF-0.027518972080382967
aF0.0007373234302113121
aF0.0
aF-0.009974820731757662
aF-0.007082471712974697
aF-0.009211658687791792
aF-0.008089083148318696
aF0.020761937328111553
aF-0.009999999999999653
aF-0.08664988272871774
aF-0.013392535314704957
aF-0.019977732228371063
aF0.0
aF0.358392100338621
aF-0.0063909368291373645
aF0.0006843886918516329
aF-0.01998512020842745
aF0.014670628481752728
aF-0.009993883182006237
aF-0.04574230739319138
aF0.026813477846142637
aF0.0006843886918516329
aF-0.027948402676585164
aF0.0
aF-0.009992256112438393
aF0.0
aF-0.04668140273508162
aF-0.010264763006224545
aF-0.023589241357036668
aF-0.009999999999486702
aF-0.05098661925703828
aF-0.046606434811442
aF-0.01886717192018768
aF-0.027267015406053356
aF0.0
aF-0.008768872084395696
aF-0.027028422457738198
aF0.0005192563738996303
aF-0.06135554724994541
aF0.0042681012742168305
aF-0.029159686557684545
aF-0.03978124099201932
aF-0.008354536397323628
aF-0.02738084756609659
aF-0.026690301513934568
aF0.015438255343890601
aF-0.025633613696928938
aF-0.005115080581075749
aF-0.019976107834881948
aF0.0
aF-0.016523710867347864
aF-0.04137296542477316
aF-0.009992256112438393
aF-0.006624900054738562
aF-0.006772157666764032
aF-0.021175452337032566
aF-0.003248803202918162
aF-0.004753595064802301
aF-0.016219405333992798
aF-0.01567367191620359
aF-0.008172121208170563
aF-0.0051403644359957965
aF0.0005428348444984521
aF-0.05103214521709024
aF-0.01876321474225321
aF-0.004331391384364769
aF-0.005309418884776944
aF-0.009999957603157137
aF-0.006694030597738511
aF-0.05544981824873465
aF-0.007089561274248947
aF0.13061775192802996
aF0.0
aF0.0
aF-0.069714534745028
aF-0.04158276094746937
aF-0.008360783002439325
aF0.0011962150848610598
aF-0.01916532093199447
aF-0.009069616366063502
aF-0.009986645538615856
aF-0.02643509718160313
aF-0.009073418077695211
aF-0.026298107918655722
aF-0.08443123516307569
aF-0.008494550791140932
aF0.14106338456722384
aF-0.030082580330506696
aF-0.011774936107990883
aF-0.006137648382754738
aF-0.008887961920931135
aF-0.006161899236103306
aF-0.1222266888291068
aF-0.09549804759937949
aF0.0
aF-0.009292212195737407
aF-0.02105547232070639
aF-0.007560565628908034
aF-0.006082842230350334
aF-0.2767438350408611
aF-0.18638514811580642
aF-0.08642184366808149
aF-0.0945901988641119
aF-0.006136652830797306
aF-0.009999494606135551
aF-0.009206523761532377
aF5.058385927723119e-06
aF-0.09271858963077118
aF-0.028194492627159295
aF-0.0017716467134401984
aF-0.003966881790314038
aF-0.009948046515872366
aF-0.009692861813250003
aF-0.017996241166497062
aF-0.05687285381427626
aF-0.005707363961650161
aF-0.01683467712216604
aF-0.01747853605803973
aF-0.009998160171485257
aF0.0010839954312972101
aF-0.005378114646159573
aF-0.008089083148318696
aF3.899844186716628e-07
aF-0.0059244500534849165
aF-0.019537250948412577
aF-0.004626230800164331
aF-0.021253714813349978
aF-0.199745830310197
aF-0.2935187714047555
aF-0.00610286212359606
aF-0.007831551722722489
aF-0.015221524356727467
aF-0.032999999074953504
aF-0.009026846446401877
aF0.0
aF-0.008385465743023497
aF-0.009749392572758149
aF-0.11436973083299212
aF-0.006948599887425493
aF-0.009608493027092026
aF-0.017370079132597624
aF-0.009978304652179665
aF-0.006564693031498204
aF-0.019894290700916296
aF-0.016310120696359245
aF-0.008858685879686717
aF-0.00437677753223781
aF-0.00371319669665375
aF-0.006263092353785213
aF-0.014721867084329113
aF-0.0086436465123133
aF-0.009876800837346536
aF-0.009783157664235534
aF-0.048119827279326344
aF-0.008988048536227734
aF-0.008556967789434046
aF-0.007595147013792818
aF-0.016835696782884994
aF-0.012046268395695276
aF-0.02624210645453995
aF-0.05080551647581928
aF-0.009987043052208386
aF-0.04589406407347234
aF-0.006151595676737804
aF-0.009957003249494216
aF-0.008089083148318696
aF0.0
aF-0.014513822351171294
aF-0.0014058592520492675
aF-0.0050915999423507404
aF-0.0029885547922557597
aF-0.01595995739579971
aF-0.028631533565235016
aF-0.008986712859718287
aF0.0001150888653018578
aF-0.009985733577802408
aF-0.0099996475075237
aF3.0891437126090435e-08
aF-0.019862946569999297
aF-0.012027009046211
aF-0.15593455684529223
aF-0.011389870390949106
aF-0.07496158327649116
aF-0.017439037774138785
aF-0.019505952965450813
aF0.0
aF-0.23818851534768806
aF-0.007888436772558466
aF-0.008908628737512657
aF-0.016389012347655316
aF-0.0158998899900111
aF-0.00996613816561035
aF-0.00883974245384172
aF0.002529804838669637
aF-0.2066852098873959
aF-0.02085878507531103
aF1.1286152284673e-06
aF-0.009999999595548684
aF-0.007290553170931496
aF-0.022994940027982642
aF-0.021999610326699025
aF-0.008635548181996532
aF-0.021521035750656385
aF-0.0028286994582565083
aF-0.007509998826438305
aF-0.009751957507406282
aF0.004764409270331667
aF-0.06668824837351597
aF-0.09879705098006979
aF-0.007559674561804745
aF-0.015855976527447583
aF-0.004999977929888569
aF-0.15593455684529223
aF0.0
aF-0.014325636725952683
aF-0.01370612960027362
aF-0.004679692157678436
aF0.0
aF-0.004194720952326882
aF-0.04815625874021935
aF0.000579360617951099
aF0.00011167727858319766
aF-0.00994072944085335
aF-0.021669673622586625
aF0.0009755356083916456
aF-0.009996403502669116
aF-0.00782297689225327
aF-0.031536732228165956
aF-0.07928410222783192
aF0.0
aF-0.0771698940500211
aF-0.03427820647836853
aF-0.00985858729845597
aF-0.015232015372120463
aF-0.03374691666977826
aF-0.06879237105068683
aF-0.009758078547128577
aF-0.017323904290253087
aF-0.029961658819900483
aF-0.009127126758074967
aF-0.0796580891859264
aF3.0891437126090435e-08
aF-0.028029666111763055
aF-0.0028165414496065934
aF-0.008080725240480494
aF-0.014890209671053381
aF-0.008614307735304177
aF-0.07615229514309148
aF7.674408769021702e-06
aF1.1871786327377621e-06
aF-0.009968773357221367
aF-0.009981685194559541
aF-0.03814003655917699
aF-0.03021205741738865
aF0.0
aF0.0005428348444984521
aF-0.042328566378053704
aF-0.061451229485332624
aF0.0
aF-0.01586119686686292
aF-0.02019965928816615
aF-0.10147712500552956
aF-0.0197422632877188
aF-0.016923184083657686
aF-0.01673205844422788
aF-0.009974820731757662
aF2.8467161961032164e-12
aF-0.006879923467076301
aF-0.006263092353785213
aF-0.0234639009668242
aF-0.06446990115820771
aF-0.036131784041268385
aF-0.018838241810981995
aF-0.01186271294395435
aF-0.006772157666764032
aF-0.029601670377054256
aF-0.0954520855846491
aF-0.02288971251389952
aF0.021585408018833817
aF-0.009759074636401419
aF-0.009203343512704645
aF-0.014485244884308001
aF-0.05863572663864618
aF-0.05867085061787523
aF-0.202181062230824
aF-0.018473132589150506
aF-0.10203991540635984
aF-0.042966726793350715
aF-0.26477733371419543
aF-0.10110349000420218
aF-0.00999997683177746
aF1.1842284542467052e-05
aF-0.14619943058964757
aF-0.004964201450776206
aF-0.18156013079878602
aF-0.10397179182147435
aF-0.01564245220676305
aF-0.005610666298311129
aF-0.04759526840643306
aF2.4394325025212103e-07
aF-0.08760358359340785
aF-0.016288040689254296
aF-0.05610261628081694
aF-0.06579072358313309
aF0.0
aF-0.03561306832267967
aF-0.019916910150773865
aF0.0
aF0.0
aF-0.037935650229041544
aF-0.009999999999936051
aF-0.009211658687791792
aF-0.025549635834022356
aF-0.07938145839786431
aF-0.026690776287140727
aF-0.007277469781633269
aF0.003333407840041386
aF-0.027693896801997082
aF0.09271761887743532
aF-0.028763822211638486
aF-0.05424791000131668
aF-0.08685116067014896
aF-0.029940069959466735
aF-0.009774731672805017
aF-0.006242137265168892
aF-0.04576512368426676
aF-0.005115080581075749
aF-0.00999973917603911
aF-0.029886940140710104
aF-0.00728146477018636
aF-0.08467576992177797
aF-0.03785387264262697
aF-0.02438605429148019
aF0.0
aF-0.010386338753247536
aF-0.006879923467076301
aF-0.03543699177808541
aF-0.02511470016447056
aF0.0
aF0.000997081515406595
aF0.0
aF0.0046722124632254045
aF0.04114990008366856
aF-0.03882458296912641
aF-0.018529135568672073
aF0.0
aF-0.01085855652583929
aF-0.016457966574352462
aF-0.04534780542739534
aF-0.01947268634393359
aF-0.006557943515714639
aF-0.009998395590638079
aF0.0
aF-0.018837912334920198
aF-0.049363022897116915
aF0.0
aF0.0168162659047114
aF-0.11408438621626431
aF0.0
aF-0.16151891114563238
aF6.673300400050763e-08
aF-0.006256072235406932
aF-0.008625108321979873
aF-0.0866598354990896
aF-0.1062628019584157
aF-0.00766226215297942
aF-0.009999810376481908
aF-0.01571184545119038
aF-0.08642645124950236
aF-0.035840532306397895
aF-0.00789320679837601
aF0.0
aF-0.0032349036185581994
aF-0.01966871333378728
aF-0.01672738610213706
aF-0.00999999996343673
aF0.026519766435838102
aF0.0
aF-0.06276742821649776
aF0.0004278544659621497
aF-0.015197580680144832
aF-0.07467414854958075
aF-0.04095144524637438
aF-0.009594799962885045
aF-0.009909325948800984
aF-0.0063978109400612835
aF0.0011372536065072172
aF0.0
aF-0.015781355481039122
aF-0.007196855985916309
aF-0.029932411721793444
aF-0.029932411721793444
aF-0.023519518289700364
aF-0.025278727606504365
aF0.000579360617951099
aF-0.00693977962858648
aF-0.008249665095352268
aF-0.007281606829375247
aF-0.009026846446401877
aF-0.0063978109400612835
aF-0.022583116362126322
aF-0.009641916958556498
aF-0.00748737846627933
aF-0.004841083218668508
aF-0.016456086180207063
aF-0.009994650378609868
aF-0.0038626851990826213
aF-0.03668961643150506
aF-0.009202686746163327
aF-0.006752843205010156
aF-0.014788982710811319
aF-0.10132176048800011
aF0.0
aF-0.009792710453331098
aF-0.0059244500534849165
aF-0.05008886060405925
aF0.0
aF0.0
aF-0.001168874370970214
aF-0.007889106838917725
aF-0.05005670118996547
aF-0.009414290174368197
aF-0.009115285888474309
aF-0.026401341838045822
aF-0.007218242159509835
aF0.001642865613088781
aF0.03900333975808294
aF-0.029032577858295768
aF-0.03519245960396345
aF-0.00998385952051752
aF0.0
aF6.673300400050763e-08
aF0.0
aF-0.0060049148889859795
aF-0.009999756300684101
aF-0.02893953918802115
aF0.0
aF-0.009936988564993207
aF0.0
aF-0.009996756478793504
aF-0.009941809572531237
aF9.426063479378577e-07
aF-0.025433459021590155
aF-0.00364199891521895
aF-0.038224679646417334
aF-0.006879923467076301
aF-0.03228652835123293
aF-0.021718328205873
aF-0.005803711654781163
aF0.0
aF-0.12895285667979958
aF-0.00999782375668614
aF-0.0608453975895905
aF-0.009988939473149527
aF6.673300400050763e-08
aF-0.005724074476405574
aF-0.10127871517329597
aF-0.015980144282203776
aF-0.01784300630281184
aF-0.0035535869570177915
aF-0.0037834823722635936
aF-0.023593630348412685
aF-0.017858801806821797
aF-0.009026846446401877
aF-0.00999364916668728
aF-0.015695471037744862
aF-0.0974437192532756
aF0.0
aF6.673300400050763e-08
aF-0.005782822615337995
aF-0.006879923467076301
aF-0.0050805468733599556
aF-0.05380053099851459
aF-0.009413339038935363
aF-0.029195970595666944
aF0.0
aF-0.0027668825829022803
aF-0.009878010021395179
aF0.0
aF-0.012048605813292139
aF0.0004278544659621497
aF-0.008968355508853419
aF-0.04929999856901949
aF-0.009641947819102187
aF-0.022774620075495702
aF-0.019045328056024186
aF-0.01764784702501293
aF0.004368227812227229
aF-0.009999991429533197
aF0.0
aF-0.006531553254494379
aF-0.004485823693642053
aF-0.011485127962342547
aF-0.006521265866815712
aF-0.019067459147337977
aF0.008629400563601723
aF-0.015739245100328546
aF-0.009999957603157137
aF-0.02317930090294295
aF-0.009026846446401877
aF-0.0078101579466739145
aF-0.009197726798655497
aF-0.008976093939461494
aF-0.00997555696627502
aF-0.008875214930015415
aF-0.02837818812802761
aF-0.005173856202418257
aF-0.04790622343512808
aF-0.008581383746657885
aF-0.009999999991109428
aF0.004193469004700827
aF-0.0198117928505965
aF0.0
aF-0.016420682351623254
aF-0.019699840888296506
aF-0.00998385952051752
aF-0.009202686746163327
aF-0.009999494606135551
aF-0.008154225475589885
aF-0.11207165830413084
aF-0.009304397063425987
aF0.0021998203842532194
aF-0.009985703754045583
aF-0.0021767758822729267
aF-0.004361347992452186
aF-0.004265367577607387
aF-0.016793850079772864
aF-0.005860107086846809
aF-0.00968200120473678
aF-0.009946389678262366
aF-0.009999948651327507
aF-0.05785968800428163
aF0.0
aF-0.027802916721475387
aF-0.026208518861224106
aF-0.11981317489313248
aF-0.0031025138578910888
aF0.0
aF-0.03915279998910712
aF-0.016160066024609288
aF0.024988090178965354
aF-0.01967347493605319
aF-0.0059244500534849165
aF-0.016141669884662223
aF-0.009202686746163327
aF-0.006879923467076301
aF-0.07706753582841729
aF-0.00999979971180882
aF-0.06926461377803497
aF8.468331458016509e-05
aF-0.01243834838931425
aF-0.008793155663244628
aF-0.005860107086846809
aF-0.009026846446401877
aF-0.042437487827870844
aF-0.009983995090482778
aF-0.009978392236875137
aF-0.017687989953658848
aF-0.0073498467544920384
aF-0.009999996689686125
aF-0.014998433772795437
aF-0.00528461291323129
aF-0.009921836345612016
aF-0.007859006655252602
aF-0.053873422853373085
aF-0.07059734967302243
aF-0.0070335777541864365
aF-0.006963900657101386
aF-0.09618960059939805
aF-0.009908529166830772
aF0.0
aF-0.007229798494246712
aF-0.01399447655566605
aF0.06717906037036812
aF-0.006411326135241767
aF0.2232374346809785
aF-0.036789714618272504
aF-0.1508146282567831
aF-0.0071680106096549765
aF0.027123242620993915
aF-0.0015578039203699165
aF0.36233622412833616
aF-0.021896504997399036
aF1.989117098588622e-08
aF0.0
aF0.6092526280073334
aF0.0
aF-0.004878986576908078
aF-0.03150679924372158
aF0.001041717749328156
aF0.219691314818427
aF1.0318239399816793
aF0.34596361383270063
aF-0.007323757036876698
aF-0.11105783760392494
aF0.026017601990479484
aF-0.3159671307410549
aF0.0
aF0.008470486297721201
aF-0.01167260054621174
aF-0.0098452057305167
aF0.0
aF-0.015270734553982012
aF0.044649035733354714
aF0.0
aF0.0
aF0.38579335949089916
aF0.1058952981539412
aF-0.050149163440378494
aF-0.02448071011882079
aF0.03080608355644746
aF-0.004676462394908941
aF3.974431197855122e-06
aF0.006387882933023228
aF0.0
aF0.0
aF0.007095998913070606
aF0.0056636965784411936
aF-0.05452605681417021
aF-0.029835566246826095
aF-0.04181702472255674
aF-0.014891544919784358
aF0.18444811487757756
aF1.1286152284673e-06
aF0.06535716153037043
aF0.012116203862912765
aF-0.0022927990017439065
aF1.0125535843457132
aF0.00015345257075072933
aF-0.06836009192943855
aF0.5305251888022686
aF-0.013323271692271276
aF-0.022020911926350167
aF-0.007497178685427761
aF0.005194555612734429
aF0.0014129675230989246
aF-0.00545480376169469
aF-0.00840950331896125
aF1.9776576836383342e-07
aF-0.009958804583842596
aF-0.01053411564192988
aF0.5036770873784271
aF0.019976530499651993
aF-0.007989814412166243
aF-0.022689349450839575
aF-0.01221974852060008
aF0.02951063599149448
aF0.017423610016493184
aF-0.009978674408096971
aF0.0
aF0.0
aF-0.0010449903888199484
aF0.0909692186830403
aF-0.033522691854136366
aF0.03573148394187104
aF-0.01668145897541425
aF0.0110470577346418
aF-0.005697225691151465
aF0.16810525487906638
aF0.16869806984919078
aF-0.01188005659997341
aF-0.02886535050277548
aF-0.009126164779247197
aF0.0896409201484824
aF-0.0066692126517805955
aF-0.012427200584937986
aF0.0
aF-0.009064259877992444
aF-0.02190288600890795
aF0.24417525994905823
aF-0.009999956944159864
aF0.007622844543134192
aF0.2490831368456833
aF-0.009999995380217577
aF-0.051377865632880666
aF-0.005703964793968877
aF0.06864720036271835
aF-0.01902368289574102
aF-0.009729252498395916
aF0.0
aF0.06154159499539728
aF0.014853856597325603
aF-0.003996976162397805
aF0.0
aF-0.009999999999387433
aF0.00034488228516117215
aF-0.014814601050211488
aF0.010348419844876902
aF-0.014205933135110604
aF-0.009951132228557355
aF-0.033467092779019145
aF-0.009983142326017913
aF0.09888424525174848
aF0.11891371281548975
aF0.0064658000510315625
aF0.0004181791743686769
aF-0.016110506593174645
aF-0.06340526368840706
aF0.026136374160711746
aF0.012280966975216544
aF0.023255976719972274
aF-0.00999979971180882
aF0.0
aF-0.009999999918263369
aF-0.009998467743877507
aF0.0
aF0.0057936942499452
aF0.03285064121343477
aF0.002826722352389798
aF0.0
aF-0.009968773357221367
aF-0.05125148887041545
aF0.17011396361287942
aF-0.01274519197625228
aF-0.024945249778506033
aF-0.027455772535382707
aF-0.027997931512049344
aF2.634527662692676e-10
aF-0.016184842367056345
aF0.01955542617749706
aF0.0007142100650435693
aF-0.0021830142981011462
aF0.06646884380704648
aF0.014172333431548887
aF0.029134931034474856
aF-0.019667185521485754
aF-0.0032571790098871256
aF-0.018023204878524886
aF-0.018071071986123614
aF-0.009999859883950895
aF0.16629533147711245
aF-0.025101224675068954
aF-0.009999999990562738
aF0.0
aF0.017143910315270777
aF0.0
aF-0.02334070969213997
aF0.0765737826867058
aF0.5815495801649831
aF-0.009993789350339484
aF-0.025195635975318292
aF-0.0029249951405674714
aF0.4611012930832616
aF-0.06808166301044312
aF-0.02666941852757965
aF-0.009688092536010247
aF-0.009609568532455448
aF0.036183270200331116
aF-0.022646604713209527
aF0.0006043301208888583
aF0.34631810465408347
aF-0.008666038755427137
aF0.0
aF-0.009994650378609868
aF0.35271287753629343
aF-0.009993110206549234
aF-0.016659998995870104
aF-0.004996809225751647
aF-0.014989823709434694
aF-0.004999451276130803
aF-0.009940789071019227
aF-0.00730940388221487
aF0.005080434544789864
aF0.0
aF0.014295256020004015
aF0.0
aF0.3663596969663237
aF-0.029943764917230296
aF-0.05515648021243151
aF0.07391923272011293
aF-0.014975951436017303
aF-0.019217502887893867
aF0.018625246668181755
aF-0.023647088814965883
aF0.005531274657342914
aF0.0
aF-0.01976647852254395
aF7.674408769021702e-06
aF-0.009767073015883058
aF-0.009999999955628473
aF-0.018885174432837652
aF-0.04055738189230823
aF3.597779108410748e-08
aF0.012656095157079628
aF-0.025810018861219322
aF0.006248427060700182
aF-0.006663319986300182
aF0.0
aF-0.0037678974305992794
aF-0.023994581970057362
aF0.0
aF0.1258125181226967
aF-0.03738731383732015
aF-0.024922640255081063
aF0.02179364712153113
aF-0.008064398115405817
aF0.8394037021608391
aF0.0
aF-0.00728603637723928
aF-0.009654373544174682
aF-0.02144969965174612
aF-0.027023756598679775
aF-0.022867171598515666
aF0.1860445799279693
aF0.01956816975726768
aF-0.014872681779778449
aF0.0
aF0.002502329529528061
aF-0.017538547781555475
aF0.0022355371612316904
aF-0.004742034925472979
aF-0.09756831293644144
aF0.019828834581039432
aF-0.007265119772377014
aF0.0
aF-0.034881490382121474
aF-0.0018854410112939689
aF-0.014020930555103872
aF0.01761027903916337
aF-0.009994650378609868
aF-0.009999999999998661
aF0.022200266072136522
aF-0.009999995380217577
aF0.015328487100185858
aF-0.015914262325979815
aF8.258761379067447e-06
aF-0.006016923639118956
aF-0.009997962105485172
aF-0.009747816988960989
aF-0.009158020337844143
aF9.07052211118753e-15
aF-0.014045540514055885
aF0.05072854963240654
aF0.05286468163999967
aF0.0
aF-0.00997066947095936
aF-0.012115740615425807
aF-0.019960612163913247
aF-0.006726205775155531
aF2.852318157021139e-05
aF-0.009995314801751722
aF-0.0884853828477485
aF-0.04774129611879703
aF0.019464672199315396
aF-0.07309013998879994
aF-0.006772652686949892
aF-0.005643694438238985
aF-0.02177187844722383
aF0.08210802078352121
aF-0.0006467749200340924
aF-0.036870801604238994
aF3.597779108410748e-08
aF-0.03659302341147694
aF-0.009824960139264177
aF-0.00940033452489568
aF-0.03019038206301495
aF0.0
aF0.0
aF0.04279950056315754
aF0.03483911491533367
aF-0.009999854821270781
aF0.0006249545555644609
aF0.40153049423425546
aF0.004344755513087622
aF-0.02849818670701271
aF-0.0005068445630498448
aF-0.012066197292909697
aF0.005115146426884117
aF-0.012123394965548182
aF-0.009999999983482223
aF-0.009940789071019227
aF0.012393168282931777
aF-0.012485120208428457
aF0.5970413149872117
aF0.17844040700500216
aF0.00011559300375144744
aF-0.005982849304841687
aF0.0
aF0.0
aF0.016663489268794494
aF-0.007990705964114029
aF-0.021815774828859876
aF0.0
aF-0.01762421351417551
aF0.0029785583934712903
aF-0.00866133236107221
aF0.0014831455413219596
aF0.00021923865977641023
aF0.00042441254368627774
aF0.0023158102730488055
aF0.0
aF0.033500479187863405
aF-0.009443709335822338
aF0.004614129732900774
aF-0.0099999999720448
aF-0.005191855532374852
aF-0.028036603694558626
aF-0.004811820089664684
aF-0.019600050821557725
aF0.21741002161267992
aF-0.02599520162066457
aF0.15019301158481874
aF-0.008268721570605597
aF0.013547503977134756
aF0.3512451740367399
aF-0.0033333299999954496
aF-0.017302782276539336
aF-0.009999994450581362
aF-0.015933701354862204
aF-0.017211199270174782
aF0.03517411227201704
aF-0.009524576603527384
aF-0.021021714579555758
aF-0.03443932705999074
aF0.049432079218095
aF0.019226605709175646
aF8.258761379067447e-06
aF-0.014715258907742633
aF-0.0033065466896268244
aF8.478162507152831e-08
aF-0.005014240543824806
aF-0.014977389073928789
aF0.004421971254869296
aF0.19306199263619003
aF-0.009999995380217577
aF-0.03535542078182502
aF-0.029915950561491426
aF-0.007674786758150128
aF-0.010787864263372296
aF-0.006023513005381238
aF0.6295022850456967
aF-0.009926047019815797
aF0.0
aF0.0061238377571064765
aF0.354194076274027
aF0.03205865433247533
aF0.020621257269293074
aF0.4608814338893375
aF0.004349310624681368
aF-0.009207058374861563
aF-0.05146412593444566
aF3.599409659216235e-13
aF0.6904988228732182
aF0.005868404404743329
aF-0.03711148274552081
aF3.4310446618723843e-07
aF0.004405210204603658
aF0.39141090384809646
aF-0.006016923639118956
aF-0.008218294750721845
aF-0.00814902503219253
aF-0.009990778566896534
aF1.0380524521544519
aF0.001898862992470425
aF-0.09883405055571387
aF0.03313267456561709
aF9.07052211118753e-15
aF0.0
aF-0.015484776678315033
aF0.0648708824822
aF0.043926413795011006
aF0.0946034724816965
aF-0.013329856715212038
aF0.04421286251330431
aF-0.0014774095244437092
aF0.6123576746246728
aF-0.03476535518348459
aF-0.07208108866010733
aF0.008671005804310426
aF-0.009981238164222474
aF-0.06422736450378652
aF-0.007858744751294625
aF-0.008287843523887319
aF-0.020452755755191832
aF0.00034859668213827605
aF-0.00972652441664563
aF0.838633899848265
aF0.21136824773132717
aF-0.04513531776383541
aF0.0
aF-0.005643367843270705
aF-0.009860072575834334
aF8.258761379067447e-06
aF-0.01862698359255106
aF-0.05573681941634557
aF0.0012585390341970193
aF-0.03145873703206847
aF0.08925604741041782
aF0.01608284908492201
aF0.008311749997156939
aF-0.00997066947095936
aF0.01258062097713903
aF-0.03403273930258248
aF-0.019989932976720706
aF-0.026344161633510613
aF-0.02456896969430127
aF0.0
aF-0.06700960433177403
aF-0.009999750758745592
aF0.6090956990141603
aF-0.009485189610951149
aF-0.019987307777064978
aF-0.014930476879265473
aF-0.009752513518501753
aF-0.005803711654781163
aF0.00012256320189822146
aF-0.01801477203732153
aF-0.004959824994265231
aF-0.008808149975049133
aF-0.006255878813798395
aF-0.004480358927162442
aF-0.027198682084980996
aF0.010470488096933885
aF-0.009351665814043343
aF-0.009202161944938976
aF-0.0077656156150058475
aF0.2271257367799167
aF-0.05360823532685604
aF0.6964209317739395
aF0.0
aF-0.009549839834483341
aF0.04070070065621849
aF0.0
aF-0.01479455687555416
aF-0.05525276982757849
aF-0.028824735942726915
aF-0.0375006061410668
aF-0.015223891208936191
aF-0.0335979306131684
aF-0.0032682675155194687
aF-0.006518352132097344
aF-0.012035354343072052
aF0.2536232065180412
aF-0.05283154408702613
aF0.0001309099495271093
aF0.0011135162791069964
aF0.7926204038417997
aF-0.009999999999999985
aF-0.022413468852068574
aF0.6353261837402309
aF-0.009999999998325135
aF0.023746296877753238
aF-0.000730716615984669
aF-0.016714584509528185
aF-0.010827050899016599
aF-0.009783157664235534
aF-0.008590247646341474
aF-0.017625917848832544
aF-0.01975119090554288
aF0.00010128908070719978
aF-0.009999999998953988
aF-0.0066882678829834775
aF1.3101148298620353
aF0.8839503250857871
aF0.004280601980354941
aF0.3069458409255911
aF-0.004605561940816465
aF0.005602038799506847
aF0.9864342310580936
aF-0.05109221271159476
aF-0.009989901135902377
aF-0.027579015117197698
aF-0.019978826362493166
aF0.03564756717062877
aF-0.01997508004994112
aF0.15481882801479813
aF0.0
aF-0.018288132457997257
aF-0.007899646052660648
aF0.05529719084924554
aF-0.0070911422705778725
aF-0.008789825167832263
aF0.22525355481672493
aF-0.009940789071019227
aF0.00682632388398538
aF-0.009836350049053276
aF2.634527662692676e-10
aF-0.010653813461933653
aF0.0
aF-0.03318816498182514
aF-0.008492409319310768
aF0.0
aF3.599409659216235e-13
aF-0.09196943429996612
aF1.4184670940025377
aF0.3281035647984958
aF-0.009999999955628473
aF0.7212905761388225
aF-0.00798137311620531
aF0.0066667999946762296
aF0.02135893455262605
aF-0.008666038755427137
aF0.21242081438975252
aF0.26029167767841127
aF0.0180858317676353
aF-0.017993329594526163
aF-0.009530750705956808
aF-0.021258692238302034
aF2.634527662692676e-10
aF-0.007234537039594541
aF-0.009999999999991103
aF-0.019989999927717644
aF-0.027546650869569252
aF0.11458633616248057
aF0.08179232787196848
aF0.1859229637284426
aF-0.0030680049537735246
aF0.0
aF0.0018248767792814536
aF0.5054012589362221
aF-0.0048454904337237445
aF0.16412872314744867
aF-0.0011061021347416426
aF-0.007328826222121393
aF-0.015132711424512479
aF-0.020932240438632177
aF0.3636882893072246
aF0.0
aF-0.001585799289817164
aF-0.009999999999816597
aF-0.03664326010605851
aF-0.005009865451569087
aF0.3847005771492593
aF-0.032165903883596886
aF-0.01127272192067674
aF0.031578140661050524
aF-0.04484143747040369
aF-0.009945897819161177
aF0.0
aF-0.013300398740560253
aF-0.03181170445856745
aF-0.00994072944085335
aF-0.028004384803503233
aF-0.005211058766154645
aF-0.01990847546778485
aF0.10799407837766219
aF-0.005537040843142385
aF-0.009627363694180133
aF-0.0015235800731703696
aF2.8467161961032164e-12
aF-0.0132612478436855
aF2.8467161961032164e-12
aF-0.009999676895111895
aF-0.03725139121872146
aF-0.006546069082715195
aF-0.08045155381171099
aF-0.07121385915313601
aF0.022883788495739917
aF0.0
aF-0.04104435365015132
aF0.001953539768384137
aF0.6585959877485382
aF-0.019112476790750524
aF-0.037375968350263473
aF-0.009999996506224585
aF-0.014857187885937487
aF-0.00999999999998635
aF0.0
aF0.0
aF-0.00828110292998997
aF-0.009044478470360207
aF0.0
aF-0.013261310050628968
aF-0.00825101699102446
aF-0.01986465173525727
aF-0.009516612831096867
aF-0.009974820731757662
aF1.124419335187269
aF-0.009959668224867654
aF0.002857766294733902
aF-0.008666038755427137
aF-0.054145169144927376
aF-0.019756400494268123
aF-0.009940789071019227
aF-0.010951154906008885
aF-0.009689730593075572
aF-0.004129191139676261
aF0.0
aF-0.009856957251617605
aF0.0
aF-0.009991918863607363
aF-0.0087111286115222
aF-0.009577001510759648
aF3.958229389811052e-09
aF-0.009999999999387433
aF-0.02247882661609516
aF-0.009997452009285904
aF-0.04863055561688371
aF0.008542840000113685
aF0.09231826590333285
aF0.0
aF0.009301901057852335
aF-0.02999479419237092
aF-0.07115980274959066
aF-0.395888028987015
aF-0.004898081910206856
aF0.025983382934188597
aF-0.013770524509208673
aF-0.025988977906579606
aF-0.030315660706251562
aF0.02211088965728923
aF-0.00833182114959848
aF0.08022568532597256
aF-0.007833312492093913
aF-0.008858211533042141
aF0.00014689599121509738
aF0.0002756965732845318
aF7.674408769021702e-06
aF0.0
aF0.047014031992377345
aF-0.015670051130860223
aF0.0026082105889833093
aF-0.013773826797942305
aF0.20818810003784974
aF-0.026136175919683004
aF-0.03435131909418684
aF0.0
aF0.028279354497933184
aF-0.014951974856249047
aF0.016104850407427637
aF0.012353617539347498
aF0.0714649659334064
aF-0.017868347427214798
aF-0.007298929249881836
aF-0.0032974497944953393
aF0.46058827160114474
aF-0.016766305974453045
aF-0.009085292863622285
aF0.09879784551923691
aF-0.019187457258215405
aF0.09881758936189869
aF0.7656349744314263
aF-0.03504607270951266
aF0.10006453418247258
aF-0.007878347427223684
aF0.05546154888410298
aF-0.004394892914763475
aF-0.10336828621039158
aF-0.010420538709534112
aF0.005002529193272634
aF-0.009999058525464012
aF0.004174805513951449
aF-0.009649316315528726
aF0.0
aF-0.014828575542662741
aF-0.0214264505109104
aF0.4239712594193192
aF0.042289138148580034
aF-0.024458577364934918
aF-0.0036646523612623785
aF-0.0016173863128055074
aF-0.017494557004511763
aF-0.03150965247249522
aF-0.009988815177684499
aF-0.014163121923549883
aF0.0024294495344182212
aF-0.004996490259646531
aF0.08621045739816
aF0.004476655290715889
aF-0.0283933307043787
aF-0.014016199765247574
aF-0.04283933243221796
aF-0.032832834649516654
aF-0.00999999306717877
aF0.5509272306453664
aF9.07052211118753e-15
aF-0.022463627494715803
aF0.02144611313318628
aF0.07238570197384346
aF-0.014997362178396242
aF-0.009953209721819928
aF0.008271090355039212
aF-0.0049364246074448444
aF0.4846556081048435
aF0.0
aF0.21861268698851705
aF0.10718331515778634
aF-0.0061911087099701945
aF-0.013372717267879617
aF1.0632376019879801
aF0.0
aF0.07070085725644018
aF0.15078885718617513
aF0.004350120395921723
aF-0.03663068328527069
aF0.01949194092330489
aF0.11218185274438011
aF0.0024310214349692206
aF0.0
aF0.0033337558538839174
aF0.0010839954312972101
aF0.8930624403135641
aF-0.018148335531425263
aF-0.15374249013474914
aF-0.008459227649132537
aF-0.2971465291380772
aF-0.013205645026979268
aF0.0
aF0.02349030600016004
aF0.08088501403597391
aF0.05903423705489429
aF-0.01998893665816198
aF-0.016270636327882122
aF-0.03813936393655647
aF0.15531651889959608
aF-0.018778827706598084
aF0.026057129706252326
aF-0.015076704649362786
aF-0.024817852108416274
aF0.0028274126678253897
aF-0.0032588431734730033
aF0.0
aF0.007481319033644052
aF0.3785865037394771
aF0.03894772852876337
aF-0.006072768901602174
aF-0.008942595961712941
aF0.40816760704593613
aF-0.03016884892648482
aF-0.05713474599951437
aF2.8467161961032164e-12
aF-0.009978660484184646
aF-0.11139016204630509
aF0.2689742041273757
aF1.6901591159078837
aF1.026857665982957
aF0.023807731953063398
aF1.6409836538686278
aF0.36399611378240165
aF0.5463750531931157
aF-0.042629416478033436
aF1.242182689075679
aF0.2857213101893527
aF-0.08478407367304075
aF0.05759904798950798
aF0.06207887564968499
aF0.007492500918862175
aF-0.005771924115676185
aF0.44844916374320853
aF1.5142060750722512
aF1.8260309603823188
aF1.1554873562906902
aF0.011250098725534603
aF-0.0186727502387328
aF-0.013211318446698015
aF-0.00996851997119697
aF-0.00987821188781816
aF1.6141667212434279
aF0.4982728930767586
aF-0.009515743437271344
aF0.004493801825139859
aF9.203369132485637e-05
aF0.036732416364935856
aF-0.008195134511839433
aF-0.009395912781938484
aF-0.039876397526254666
aF0.4488558744513559
aF-0.014590606652653503
aF1.4314465451575211
aF-0.05752415364233991
aF9.203369132485637e-05
aF1.2124356269019805
aF0.041834253597398716
aF0.0038850979520922615
aF0.07671066868707793
aF-0.009845357911392775
aF1.5371129842132918
aF1.1550046170483446
aF1.6982841112384903
aF0.012989520182377534
aF-0.029939264064478922
aF0.4507772073110593
aF0.06572912673797021
aF0.07171598975589791
aF0.007099042942161909
aF-0.030071576397691493
aF-0.04913803724608088
aF0.49441081056547614
aF0.9503729518608478
aF-0.039329223820060814
aF-0.042629416478033436
aF1.5357751067106924
aF-0.019554474864029208
aF-0.006439599323101083
aF0.04111311610329052
aF0.023083844559357466
aF0.055937810879592764
aF0.24954230069692207
aF-0.09524331826449185
aF-0.015599901886929224
aF-0.04560231934143964
aF-0.10699989491479414
aF-0.008975909973491233
aF-0.009978914483945809
aF0.5165842973779786
aF0.14770215444619822
aF0.15549409567903186
aF1.672792190764507
aF1.6900562394514584
aF0.11414293732210741
aF-0.024400263821323816
aF0.004493801825139859
aF-0.03209074578768386
aF1.051801454670357
aF1.4196259724643199
aF1.3624794914732405
aF-0.08944944461056707
aF-0.013211318446698015
aF0.06255032702420024
aF-0.00989606382445209
aF1.4875688762699715
aF0.015031492206701353
aF0.19457413150353106
aF0.008751097694152684
aF0.4579607249470155
aF-0.03678097127198768
aF1.521596902144589
aF0.9689616283482367
aF0.21564308735789708
aF-0.014325691818761156
aF-0.014499592495162897
aF0.45088168113970456
aF0.03365467970250913
aF1.6410612482463298
aF-0.04064970643501222
aF-0.008195134511839433
aF0.8032416829249167
aF0.07611199865765675
aF0.0050838227736187585
aF1.438120871796492
aF-0.042629416478033436
aF1.294082018612861
aF0.02653446239159477
aF1.6585237388067382
aF1.8523845258627225
aF0.8805306320327853
aF0.5200499246758559
aF0.17047976184837876
aF-0.007215722574054114
aF-0.01737928529148705
aF1.8109999968950066
aF-0.019535969160578804
aF0.18765940833741368
aF0.6800003106928847
aF0.0012203014772892273
aF1.5866282366341427
aF0.0
aF-0.029113817360812227
aF0.4994319337868343
aF-0.08458138209395068
aF1.6409836538686278
aF-0.04725010554895684
aF0.8787336472102721
aF-0.04800711665677281
aF1.6411438223198536
aF0.0017259406095649402
aF-0.04757278155534796
aF0.5504548759933012
aF-0.05646927460330915
aF-0.04429629206325314
aF-0.007750347006762958
aF-0.0007812969698490378
aF0.5769447240619265
aF0.06529992016056795
aF0.0006058139172237798
aF0.15549409567903186
aF-0.03547645565525255
aF-0.024366852017417305
aF9.203369132485637e-05
aF0.20881073703044212
aF-0.013521042222699734
aF-0.042629416478033436
aF1.4979587995456374
aF0.15719278329351397
aF0.11873057360761502
aF0.0
aF0.032788208249417555
aF0.035602858286591633
aF0.09810999010905291
aF-0.00047594817796719005
aF0.010041016845662429
aF-0.03282771091235302
aF1.6900562394514584
aF0.0
aF0.00034581981563309647
aF0.16904023064072313
aF0.018038476395987487
aF1.3221319205802093
aF0.0053008320500978375
aF1.540663892804845
aF0.13465318826228959
aF0.0078038110407555785
aF0.03185061626109296
aF0.07444178014076275
aF0.8581907415141333
aF1.6411438223198536
aF-0.012992875782823304
aF0.20550389621461287
aF1.4729687360450345
aF1.6410612482463298
aF0.01149913638760222
aF-0.002181757579402626
aF0.15616092775960155
aF0.01858905150882376
aF-0.02699623303854258
aF-0.007677082752591103
aF0.0
aF-0.014499592495162897
aF1.6447135715807768
aF0.3116485830015458
aF0.4781390562913488
aF1.3383035530494838
aF-0.028785671373125783
aF-0.009999999955628473
aF0.8315040394119295
aF0.8409747071844982
aF1.2996016910470634
aF0.0678411332809968
aF-0.05889041060430187
aF-0.02963706055993598
aF9.07052211118753e-15
aF1.2996951405496013
aF-0.06838467668788213
aF0.03176422682240583
aF1.6763039517478848
aF1.220087555040609
aF1.242526801424124
aF0.006054212404809829
aF-0.09748819033757115
aF0.16934134717012678
aF1.641814373552388
aF1.8512368403931372
aF-0.008914104606775764
aF7.720585800263802e-07
aF-0.008556239793754604
aF-0.009921814601753804
aF0.08370717085343647
aF0.04871935135193295
aF0.047530826635803027
aF0.4520251759852415
aF0.0002128114983076268
aF0.0007474099301448744
aF-0.017099028336880626
aF1.647541802637844
aF-0.05010487222752479
aF-0.0017004692974159977
aF0.5980614744916671
aF-0.03874175150567535
aF0.003306829863730869
aF0.8822018627988553
aF5.142885968111022e-05
aF-0.002729693151778602
aF0.021226651828618073
aF-0.01757360181174002
aF1.5831994187964946
aF0.32838013539702776
aF1.0248599572997223
aF1.6434234487115524
aF0.318709677822067
aF0.1479689860847257
aF0.030989343851314327
aF-0.13972887348585006
aF-0.0009821073626715652
aF-0.019989273624434062
aF1.6461811429364854
aF-0.06874676196101293
aF1.572560985819804
aF1.3784125159910932
aF0.44714900858252854
aF0.07150515757521113
aF0.0
aF-0.018062213080449304
aF-0.06534079721595809
aF1.2060286941720981
aF1.2628486279392215
aF3.599409659216235e-13
aF1.438120871796492
aF0.0610944450449805
aF-0.009714736463790162
aF0.06263497084063047
aF-0.00645776649619406
aF-0.018487550965550267
aF-0.06685856831789544
aF-0.07475525072165638
aF0.058070155334253006
aF1.5726721639262342
aF0.0194296934316127
aF0.03676673203765958
aF-0.03151970595122237
aF0.04596602113452521
aF-0.0528208509948426
aF-0.04782647594686427
aF1.438120871796492
aF0.46493817753681405
aF4.413608873928314e-06
aF0.03137515222920096
aF-0.00653914206515904
aF0.02272534156785939
aF0.449567635260394
aF0.03309218283528548
aF0.17116479921734024
aF0.18840311222593165
aF1.573722882225933
aF-0.06543533011757587
aF-0.03667138462991285
aF0.0185129598269468
aF0.6374163802653717
aF-0.00993822358068376
aF0.0
aF0.026906091766995967
aF1.6410504235176715
aF0.00249500000016531
aF-0.013211318446698015
aF0.7997025166962285
aF-0.036570821730769774
aF-0.021171600095031485
aF-0.06762243651196523
aF-0.01957995837444678
aF-0.017279164039736943
aF0.1472998445418704
aF1.0533248788658514
aF1.226269844633303
aF-0.005966027657254422
aF1.468447975005488
aF0.01363560012356697
aF-0.0018974533927969585
aF0.022533491313190542
aF0.09598726931738366
aF0.05586890182473449
aF-0.039329223820060814
aF1.6412214166975545
aF9.203369132485637e-05
aF-0.020055412465332267
aF0.5636028726483578
aF1.438120871796492
aF0.14309660046962158
aF0.9694995747053967
aF-0.009999998882258774
aF0.1472998445418704
aF0.4082342973881304
aF0.05723463113970101
aF0.1812078775687622
aF0.3583332223077814
aF-0.023151507917512693
aF-0.03958772134160443
aF0.20450653271533367
aF0.6085455549584461
aF0.03743908025187139
aF-0.2025435729596468
aF1.5789932207145128
aF0.005561016498744451
aF0.008751097694152684
aF0.0050838227736187585
aF-0.0099996475075237
aF-0.03624199779301296
aF-0.009501963370130945
aF1.1628661767042523
aF0.018488027902209898
aF0.15549409567903186
aF0.0038850979520922615
aF-0.009999999996739116
aF1.6671314686877707
aF0.1219795364463329
aF6.863494623088328e-08
aF0.0
aF1.8862784236117547
aF0.0007918420745302962
aF1.535871419369116
aF0.9862399495490073
aF-0.009824611461959672
aF0.0
aF-0.03712431603083289
aF0.03894722946839006
aF-0.013081635641341948
aF-0.07803491532735993
aF0.011119854242084231
aF0.14770215444619822
aF0.48026835574373894
aF-0.07308235422933798
aF-0.04916857996407213
aF0.32485039167551033
aF1.4551887674070283
aF0.4733306161336904
aF0.0
aF0.0050838227736187585
aF0.0042093690343255035
aF0.008751097694152684
aF0.08481561251245082
aF1.535871419369116
aF-0.007215722574054114
aF0.010041016845662429
aF0.09228313184740417
aF0.026213822543085713
aF0.8703824053315194
aF-0.07589937415179991
aF0.563219748363125
aF0.17345673031872486
aF-0.06246354746455023
aF0.010041016845662429
aF0.44821280946579245
aF0.9382926328699654
aF0.010041016845662429
aF1.6409836538686278
aF-0.018072730235713815
aF1.2996871019347584
aF0.1485405341997009
aF-0.009999998178230357
aF0.6803107531054698
aF0.44378819845762574
aF1.0636429295919143
aF0.44738118478949557
aF0.18811063661797275
aF-0.004261788027213534
aF0.14770215444619822
aF0.018349191895064395
aF0.740144178774707
aF0.043680802465018154
aF0.009220434536892875
aF-0.07120123685702623
aF-0.0051677875145116564
aF0.3359341664905244
aF-0.01586630089205705
aF0.0
aF0.001132383487887685
aF0.33378088792632915
aF-0.009988903649709346
aF-0.014926668264390978
aF0.005000000131188101
aF-0.01996891474605962
aF-0.046975082103159094
aF0.0
aF0.0
aF0.0
aF1.0270834040525603e-05
aF0.0
aF-0.021691436221934972
aF-0.003316298911618297
aF-0.00498445733220237
aF-0.004984728686501273
aF0.0
aF0.004686489344110441
aF0.31212790957418457
aF-0.013456273831441594
aF-0.01014238047880058
aF0.011256710648304113
aF0.005000000131188101
aF0.0050460105078674
aF9.202101573480115e-05
aF0.0
aF9.426063479378577e-07
aF0.49388107670957015
aF0.006213578470533434
aF1.6933624645017007
aF-0.05441361811062076
aF1.6410422387029457
aF-0.03709824908112578
aF-0.005072417002396081
aF-0.009998448929578175
aF1.7942566234114912
aF-0.010577109323702491
aF0.15549409567903186
aF0.009477542374511535
aF1.4027353527199102
aF9.202101573480115e-05
aF0.6545977052844393
aF-0.007731661146881591
aF-0.0159703901846174
aF0.007905524430256852
aF0.07837662190514955
aF-0.017879059393260534
aF0.0
aF-0.01841287730297134
aF1.6902484542891885
aF-0.018497531177702316
aF0.028202018047907947
aF0.1043706994644465
aF-0.018487550965550267
aF-0.05010487222752479
aF1.6900562394514584
aF3.299048748562683e-05
aF0.4824989889045483
aF0.30823232690775415
aF1.535871419369116
aF-0.01794654653773968
aF0.44876850042517646
aF-0.024884254563953066
aF-0.018856864239089624
aF0.047296576603356275
aF0.0048506515464168745
aF-0.036325355900058164
aF-0.0040078849558970436
aF-0.01993629310045897
aF-0.049933099999049484
aF0.021260197089730905
aF0.6312990849552645
aF0.539052498291226
aF-0.019280805445579696
aF-0.1350533365928398
aF-0.01794654653773968
aF0.07154975919452253
aF0.7650825747815775
aF0.1472998445418704
aF0.24112408993339657
aF-0.007469743957814769
aF-0.012853970075141937
aF0.09382096902456663
aF0.0
aF1.5166897128542711
aF1.5883629665198518
aF-0.01888230781359329
aF0.07788894783038496
aF-0.008209313252035229
aF6.939147810802737e-09
aF-0.01130886351087559
aF5.388910277372801e-06
aF0.1548966841777097
aF-0.09034251424216476
aF0.11543955649489344
aF-0.019984792768073904
aF0.0
aF0.008751097694152684
aF-0.009988903649709346
aF-0.00999781427579227
aF-0.015653137950956332
aF-0.03783922807569344
aF3.599409659216235e-13
aF0.27865923074981436
aF0.0
aF1.6180966908267913
aF0.005080729141386336
aF-0.00999999998807191
aF-0.016357499680667128
aF-0.009988903649709346
aF-0.012362690733341768
aF1.337900003354404
aF0.00034581981563309647
aF1.4984832270463977
aF1.7726973125020696e-06
aF-0.013734008763679039
aF0.5554286743583801
aF-0.08633826624064081
aF-0.0511269885228671
aF-0.011580808365669161
aF0.0
aF0.0
aF-0.029873326348517103
aF0.011256710648304113
aF0.0037894490804795218
aF0.0
aF0.007905524430256852
aF0.0
aF-0.0019535222092875483
aF0.0
asb.